(lp0
V4026
p1
aV4021
p2
aV4785
p3
aV4783
p4
aV4780
p5
aV5823
p6
aV5822
p7
aV4149
p8
aV3854
p9
aV347
p10
aV3852
p11
aV3853
p12
aV3851
p13
aV810
p14
aV812
p15
aV813
p16
aV2859
p17
aV2917
p18
aV2850
p19
aV1797
p20
aV2857
p21
aV3332
p22
aV1495
p23
aV3335
p24
aV1700
p25
aV5309
p26
aV1702
p27
aV2319
p28
aV5303
p29
aV5304
p30
aV5269
p31
aV1392
p32
aV5855
p33
aV1666
p34
aV1665
p35
aV292
p36
aV3770
p37
aV1080
p38
aV4320
p39
aV1126
p40
aV270
p41
aV3679
p42
aV3144
p43
aV278
p44
aV3673
p45
aV2821
p46
aV5414
p47
aV1106
p48
aV2988
p49
aV3029
p50
aV2986
p51
aV525
p52
aV1400
p53
aV1235
p54
aV1230
p55
aV2447
p56
aV2445
p57
aV1335
p58
aV1337
p59
aV1239
p60
aV1332
p61
aV109
p62
aV1932
p63
aV4420
p64
aV5573
p65
aV1245
p66
aV3097
p67
aV1247
p68
aV437
p69
aV3098
p70
aV432
p71
aV1538
p72
aV2615
p73
aV339
p74
aV2619
p75
aV4101
p76
aV4100
p77
aV3294
p78
aV4108
p79
aV5135
p80
aV3291
p81
aV5130
p82
aV3512
p83
aV3899
p84
aV2739
p85
aV4175
p86
aV1621
p87
aV1431
p88
aV4070
p89
aV3966
p90
aV3967
p91
aV2004
p92
aV5798
p93
aV2861
p94
aV745
p95
aV2866
p96
aV2867
p97
aV551
p98
aV3633
p99
aV4619
p100
aV4612
p101
aV4617
p102
aV5455
p103
aV3345
p104
aV1691
p105
aV1754
p106
aV1698
p107
aV1750
p108
aV4258
p109
aV1172
p110
aV610
p111
aV1274
p112
aV1275
p113
aV615
p114
aV3708
p115
aV1795
p116
aV1885
p117
aV5538
p118
aV2088
p119
aV4669
p120
aV2129
p121
aV944
p122
aV2081
p123
aV942
p124
aV2085
p125
aV6039
p126
aV2530
p127
aV1570
p128
aV2534
p129
aV5172
p130
aV2718
p131
aV3414
p132
aV499
p133
aV139
p134
aV4220
p135
aV4222
p136
aV4389
p137
aV1831
p138
aV4383
p139
aV5624
p140
aV1372
p141
aV1374
p142
aV5384
p143
aV5387
p144
aV3936
p145
aV3932
p146
aV1951
p147
aV4037
p148
aV4039
p149
aV2452
p150
aV5999
p151
aV4487
p152
aV3844
p153
aV5695
p154
aV825
p155
aV4488
p156
aV377
p157
aV703
p158
aV86
p159
aV5491
p160
aV84
p161
aV5493
p162
aV1713
p163
aV792
p164
aV1714
p165
aV2300
p166
aV4726
p167
aV1659
p168
aV5843
p169
aV5965
p170
aV586
p171
aV587
p172
aV2280
p173
aV3747
p174
aV3745
p175
aV3669
p176
aV1984
p177
aV1135
p178
aV4254
p179
aV3152
p180
aV4628
p181
aV2054
p182
aV2275
p183
aV5401
p184
aV5400
p185
aV3012
p186
aV3013
p187
aV2572
p188
aV2278
p189
aV2570
p190
aV518
p191
aV926
p192
aV459
p193
aV1225
p194
aV1732
p195
aV2459
p196
aV1222
p197
aV629
p198
aV4187
p199
aV457
p200
aV1876
p201
aV1874
p202
aV4431
p203
aV4067
p204
aV175
p205
aV170
p206
aV2053
p207
aV972
p208
aV2056
p209
aV4827
p210
aV596
p211
aV654
p212
aV3089
p213
aV651
p214
aV3879
p215
aV2620
p216
aV3546
p217
aV1919
p218
aV3527
p219
aV5894
p220
aV1911
p221
aV5103
p222
aV3285
p223
aV1916
p224
aV3885
p225
aV3445
p226
aV860
p227
aV864
p228
aV3442
p229
aV2027
p230
aV2023
p231
aV3115
p232
aV2759
p233
aV3901
p234
aV3548
p235
aV3746
p236
aV4761
p237
aV2824
p238
aV4765
p239
aV5219
p240
aV3233
p241
aV3237
p242
aV324
p243
aV3976
p244
aV5801
p245
aV2871
p246
aV776
p247
aV77
p248
aV73
p249
aV3353
p250
aV3059
p251
aV3052
p252
aV3526
p253
aV5360
p254
aV1048
p255
aV1681
p256
aV1685
p257
aV1687
p258
aV1688
p259
aV1761
p260
aV1142
p261
aV3714
p262
aV3717
p263
aV4305
p264
aV666
p265
aV1266
p266
aV5508
p267
aV4470
p268
aV3650
p269
aV5500
p270
aV4909
p271
aV693
p272
aV2488
p273
aV2380
p274
aV2487
p275
aV698
p276
aV3121
p277
aV2528
p278
aV547
p279
aV545
p280
aV548
p281
aV3280
p282
aV4889
p283
aV5067
p284
aV2845
p285
aV990
p286
aV992
p287
aV998
p288
aV2703
p289
aV3401
p290
aV3406
p291
aV3049
p292
aV5594
p293
aV2060
p294
aV1380
p295
aV2149
p296
aV4214
p297
aV5399
p298
aV3274
p299
aV3275
p300
aV3474
p301
aV834
p302
aV3577
p303
aV3479
p304
aV4495
p305
aV492
p306
aV369
p307
aV5684
p308
aV365
p309
aV361
p310
aV2935
p311
aV384
p312
aV367
p313
aV1726
p314
aV1723
p315
aV1720
p316
aV4757
p317
aV5978
p318
aV5878
p319
aV5975
p320
aV570
p321
aV575
p322
aV3007
p323
aV2195
p324
aV2196
p325
aV3310
p326
aV3009
p327
aV2807
p328
aV254
p329
aV2200
p330
aV2568
p331
aV1425
p332
aV5437
p333
aV5434
p334
aV2208
p335
aV3360
p336
aV5369
p337
aV1039
p338
aV2360
p339
aV2428
p340
aV1213
p341
aV1862
p342
aV5550
p343
aV5658
p344
aV5659
p345
aV3724
p346
aV165
p347
aV5650
p348
aV4685
p349
aV4683
p350
aV3683
p351
aV2896
p352
aV1454
p353
aV4750
p354
aV2516
p355
aV2100
p356
aV1510
p357
aV2735
p358
aV5116
p359
aV5119
p360
aV5118
p361
aV4859
p362
aV5888
p363
aV1810
p364
aV879
p365
aV2743
p366
aV890
p367
aV1153
p368
aV4153
p369
aV5834
p370
aV5830
p371
aV1601
p372
aV1973
p373
aV1970
p374
aV357
p375
aV353
p376
aV3986
p377
aV805
p378
aV2960
p379
aV2848
p380
aV2849
p381
aV763
p382
aV761
p383
aV766
p384
aV1785
p385
aV2841
p386
aV5476
p387
aV5475
p388
aV5473
p389
aV3047
p390
aV5479
p391
aV5378
p392
aV2325
p393
aV2329
p394
aV1678
p395
aV1671
p396
aV1158
p397
aV4338
p398
aV672
p399
aV5518
p400
aV3642
p401
aV2991
p402
aV4646
p403
aV4644
p404
aV1413
p405
aV2476
p406
aV2473
p407
aV5015
p408
aV1325
p409
aV4893
p410
aV2772
p411
aV2776
p412
aV114
p413
aV5603
p414
aV112
p415
aV118
p416
aV1857
p417
aV1252
p418
aV2174
p419
aV916
p420
aV910
p421
aV1259
p422
aV3812
p423
aV3952
p424
aV2608
p425
aV305
p426
aV3260
p427
aV5128
p428
aV846
p429
aV845
p430
aV5088
p431
aV842
p432
aV4290
p433
aV4292
p434
aV2670
p435
aV2675
p436
aV2928
p437
aV70
p438
aV1632
p439
aV3217
p440
aV5943
p441
aV5230
p442
aV4740
p443
aV1735
p444
aV3219
p445
aV5948
p446
aV5781
p447
aV2238
p448
aV1597
p449
aV2187
p450
aV1593
p451
aV1592
p452
aV3173
p453
aV4600
p454
aV5340
p455
aV3379
p456
aV5425
p457
aV1029
p458
aV2359
p459
aV1748
p460
aV1749
p461
aV1745
p462
aV1035
p463
aV2356
p464
aV729
p465
aV606
p466
aV2586
p467
aV1207
p468
aV4242
p469
aV2434
p470
aV4453
p471
aV4452
p472
aV4396
p473
aV1892
p474
aV959
p475
aV2137
p476
aV2132
p477
aV4924
p478
aV950
p479
aV4510
p480
aV1116
p481
aV1449
p482
aV2723
p483
aV5165
p484
aV5287
p485
aV487
p486
aV5043
p487
aV5040
p488
aV3780
p489
aV1802
p490
aV3423
p491
aV5635
p492
aV5636
p493
aV5630
p494
aV3425
p495
aV4397
p496
aV2002
p497
aV4990
p498
aV475
p499
aV479
p500
a.