(dp0
V1784
p1
(dp2
S'alpha'
p3
F0.5
sS'weights'
p4
(dp5
Vrating
p6
I29
sVgenres
p7
I794
sVrated
p8
I368
sVlanguage
p9
I1087
sVtitle
p10
I0
sVcountry
p11
I884
sVfilming_locations
p12
I686
sVimdb_id
p13
I0
sVdirectors
p14
I1
sVwriters
p15
I45
sVactors
p16
I12
sVyear
p17
I53
sVtype
p18
I1131
sVid
p19
I0
sVrating_count
p20
I0
sssV5988
p21
(dp22
g3
F0.5
sg4
(dp23
g6
I70
sg7
I2578
sg8
I825
sg9
I2609
sg10
I0
sg11
I2023
sg12
I1343
sg13
I0
sg14
I2
sg15
I70
sg16
I54
sg17
I154
sg18
I3003
sg19
I0
sg20
I0
sssV5989
p24
(dp25
g3
F0.5
sg4
(dp26
g6
I62
sg7
I2167
sg8
I726
sg9
I2461
sg10
I0
sg11
I1897
sg12
I1294
sg13
I0
sg14
I1
sg15
I137
sg16
I36
sg17
I141
sg18
I2926
sg19
I0
sg20
I0
sssV5982
p27
(dp28
g3
F0.5
sg4
(dp29
g6
I209
sg7
I5649
sg8
I1340
sg9
I7185
sg10
I0
sg11
I5675
sg12
I3320
sg13
I0
sg14
I15
sg15
I285
sg16
I97
sg17
I302
sg18
I7504
sg19
I0
sg20
I0
sssV5983
p30
(dp31
g3
F0.5
sg4
(dp32
g6
I8
sg7
I326
sg8
I52
sg9
I379
sg10
I0
sg11
I278
sg12
I123
sg13
I0
sg14
I1
sg15
I36
sg16
I6
sg17
I9
sg18
I351
sg19
I0
sg20
I0
sssV5980
p33
(dp34
g3
F0.5
sg4
(dp35
g6
I481
sg7
I15199
sg8
I3299
sg9
I18995
sg10
I0
sg11
I15845
sg12
I8253
sg13
I0
sg14
I41
sg15
I1343
sg16
I271
sg17
I484
sg18
I20713
sg19
I0
sg20
I0
sssV5981
p36
(dp37
g3
F0.5
sg4
(dp38
g6
I844
sg7
I25516
sg8
I6999
sg9
I33807
sg10
I2
sg11
I27705
sg12
I16536
sg13
I2
sg14
I91
sg15
I2449
sg16
I426
sg17
I998
sg18
I36865
sg19
I0
sg20
I3
sssV5986
p39
(dp40
g3
F0.5
sg4
(dp41
g6
I151
sg7
I4806
sg8
I1451
sg9
I6516
sg10
I0
sg11
I4897
sg12
I3604
sg13
I0
sg14
I19
sg15
I384
sg16
I90
sg17
I191
sg18
I6672
sg19
I0
sg20
I0
sssV5987
p42
(dp43
g3
F0.5
sg4
(dp44
g6
I44
sg7
I1279
sg8
I428
sg9
I1574
sg10
I0
sg11
I1352
sg12
I1060
sg13
I0
sg14
I4
sg15
I80
sg16
I27
sg17
I93
sg18
I1596
sg19
I0
sg20
I0
sssV5984
p45
(dp46
g3
F0.5
sg4
(dp47
g6
I13
sg7
I279
sg8
I89
sg9
I357
sg10
I0
sg11
I227
sg12
I101
sg13
I0
sg14
I0
sg15
I21
sg16
I3
sg17
I18
sg18
I378
sg19
I0
sg20
I0
sssV5985
p48
(dp49
g3
F0.5
sg4
(dp50
g6
I116
sg7
I3298
sg8
I1056
sg9
I3722
sg10
I0
sg11
I3172
sg12
I1974
sg13
I0
sg14
I9
sg15
I142
sg16
I64
sg17
I190
sg18
I4753
sg19
I0
sg20
I0
sssV2918
p51
(dp52
g3
F0.5
sg4
(dp53
g6
I1777
sg7
I49796
sg8
I17279
sg9
I65539
sg10
I1
sg11
I54430
sg12
I36225
sg13
I1
sg14
I74
sg15
I3218
sg16
I1164
sg17
I3080
sg18
I70512
sg19
I0
sg20
I4
sssV2919
p54
(dp55
g3
F0.5
sg4
(dp56
g6
I265
sg7
I7503
sg8
I2714
sg9
I11048
sg10
I1
sg11
I9212
sg12
I6346
sg13
I1
sg14
I21
sg15
I365
sg16
I188
sg17
I488
sg18
I11478
sg19
I0
sg20
I1
sssV4732
p57
(dp58
g3
F0.5
sg4
(dp59
g6
I5758
sg7
I160059
sg8
I45455
sg9
I208795
sg10
I13
sg11
I174894
sg12
I111869
sg13
I13
sg14
I416
sg15
I10095
sg16
I3676
sg17
I8013
sg18
I223485
sg19
I0
sg20
I19
sssV4733
p60
(dp61
g3
F0.5
sg4
(dp62
g6
I132
sg7
I3199
sg8
I1164
sg9
I5180
sg10
I1
sg11
I4399
sg12
I3269
sg13
I1
sg14
I16
sg15
I129
sg16
I106
sg17
I210
sg18
I5151
sg19
I0
sg20
I2
sssV4730
p63
(dp64
g3
F0.5
sg4
(dp65
g6
I7
sg7
I149
sg8
I41
sg9
I290
sg10
I0
sg11
I209
sg12
I119
sg13
I0
sg14
I0
sg15
I15
sg16
I3
sg17
I56
sg18
I325
sg19
I0
sg20
I0
sssV4731
p66
(dp67
g3
F0.5
sg4
(dp68
g6
I31
sg7
I1115
sg8
I271
sg9
I1256
sg10
I0
sg11
I1111
sg12
I834
sg13
I0
sg14
I2
sg15
I191
sg16
I27
sg17
I37
sg18
I1485
sg19
I0
sg20
I0
sssV4736
p69
(dp70
g3
F0.5
sg4
(dp71
g6
I1222
sg7
I35971
sg8
I10506
sg9
I42291
sg10
I1
sg11
I34984
sg12
I23509
sg13
I1
sg14
I48
sg15
I1266
sg16
I651
sg17
I2263
sg18
I48215
sg19
I0
sg20
I2
sssV4737
p72
(dp73
g3
F0.5
sg4
(dp74
g6
I126
sg7
I4114
sg8
I1400
sg9
I4925
sg10
I0
sg11
I4145
sg12
I2357
sg13
I0
sg14
I6
sg15
I254
sg16
I68
sg17
I255
sg18
I5778
sg19
I0
sg20
I1
sssV4734
p75
(dp76
g3
F0.5
sg4
(dp77
g6
I334
sg7
I9735
sg8
I3066
sg9
I12388
sg10
I0
sg11
I10228
sg12
I7509
sg13
I0
sg14
I24
sg15
I724
sg16
I185
sg17
I433
sg18
I13216
sg19
I0
sg20
I2
sssV4735
p78
(dp79
g3
F0.5
sg4
(dp80
g6
I118
sg7
I3382
sg8
I868
sg9
I5135
sg10
I1
sg11
I4090
sg12
I2776
sg13
I1
sg14
I9
sg15
I284
sg16
I78
sg17
I147
sg18
I5253
sg19
I0
sg20
I1
sssV2316
p81
(dp82
g3
F0.5
sg4
(dp83
g6
I280
sg7
I7889
sg8
I2606
sg9
I10600
sg10
I0
sg11
I8217
sg12
I5862
sg13
I0
sg14
I9
sg15
I285
sg16
I152
sg17
I328
sg18
I11029
sg19
I0
sg20
I0
sssV2317
p84
(dp85
g3
F0.5
sg4
(dp86
g6
I48
sg7
I1178
sg8
I403
sg9
I1554
sg10
I0
sg11
I1278
sg12
I833
sg13
I0
sg14
I1
sg15
I120
sg16
I16
sg17
I68
sg18
I1770
sg19
I0
sg20
I0
sssV4738
p87
(dp88
g3
F0.5
sg4
(dp89
g6
I415
sg7
I12998
sg8
I3213
sg9
I16620
sg10
I0
sg11
I13509
sg12
I8615
sg13
I0
sg14
I30
sg15
I1095
sg16
I199
sg17
I490
sg18
I17036
sg19
I0
sg20
I0
sssV4739
p90
(dp91
g3
F0.5
sg4
(dp92
g6
I122
sg7
I4151
sg8
I1135
sg9
I4976
sg10
I2
sg11
I4140
sg12
I2191
sg13
I2
sg14
I11
sg15
I391
sg16
I94
sg17
I194
sg18
I5461
sg19
I0
sg20
I2
sssV2312
p93
(dp94
g3
F0.5
sg4
(dp95
g6
I18
sg7
I433
sg8
I125
sg9
I580
sg10
I0
sg11
I439
sg12
I408
sg13
I0
sg14
I0
sg15
I21
sg16
I9
sg17
I20
sg18
I595
sg19
I0
sg20
I0
sssV2313
p96
(dp97
g3
F0.5
sg4
(dp98
g6
I25
sg7
I582
sg8
I130
sg9
I834
sg10
I0
sg11
I627
sg12
I297
sg13
I0
sg14
I1
sg15
I56
sg16
I16
sg17
I18
sg18
I820
sg19
I0
sg20
I0
sssV2310
p99
(dp100
g3
F0.5
sg4
(dp101
g6
I104
sg7
I3465
sg8
I1327
sg9
I4642
sg10
I1
sg11
I3830
sg12
I2321
sg13
I1
sg14
I4
sg15
I212
sg16
I70
sg17
I208
sg18
I4754
sg19
I0
sg20
I2
sssV2311
p102
(dp103
g3
F0.5
sg4
(dp104
g6
I5
sg7
I301
sg8
I80
sg9
I256
sg10
I0
sg11
I225
sg12
I118
sg13
I0
sg14
I0
sg15
I10
sg16
I4
sg17
I6
sg18
I231
sg19
I0
sg20
I0
sssV2147
p105
(dp106
g3
F0.5
sg4
(dp107
g6
I103
sg7
I3045
sg8
I945
sg9
I3965
sg10
I2
sg11
I3104
sg12
I2037
sg13
I2
sg14
I14
sg15
I195
sg16
I84
sg17
I188
sg18
I3840
sg19
I0
sg20
I2
sssV5855
p108
(dp109
g3
F0.5
sg4
(dp110
g6
I30
sg7
I801
sg8
I366
sg9
I1118
sg10
I0
sg11
I968
sg12
I671
sg13
I0
sg14
I4
sg15
I83
sg16
I26
sg17
I56
sg18
I1275
sg19
I0
sg20
I0
sssV5856
p111
(dp112
g3
F0.5
sg4
(dp113
g6
I53
sg7
I1382
sg8
I354
sg9
I1970
sg10
I0
sg11
I1684
sg12
I1020
sg13
I0
sg14
I1
sg15
I79
sg16
I14
sg17
I75
sg18
I2016
sg19
I0
sg20
I0
sssV5857
p114
(dp115
g3
F0.5
sg4
(dp116
g6
I509
sg7
I13919
sg8
I4030
sg9
I18330
sg10
I0
sg11
I15348
sg12
I7728
sg13
I0
sg14
I46
sg15
I618
sg16
I254
sg17
I758
sg18
I18723
sg19
I0
sg20
I0
sssV5850
p117
(dp118
g3
F0.5
sg4
(dp119
g6
I42
sg7
I995
sg8
I214
sg9
I1405
sg10
I0
sg11
I1016
sg12
I490
sg13
I0
sg14
I2
sg15
I82
sg16
I19
sg17
I56
sg18
I1653
sg19
I0
sg20
I0
sssV5851
p120
(dp121
g3
F0.5
sg4
(dp122
g6
I315
sg7
I8069
sg8
I2129
sg9
I11578
sg10
I1
sg11
I8716
sg12
I5811
sg13
I1
sg14
I35
sg15
I917
sg16
I159
sg17
I473
sg18
I12880
sg19
I0
sg20
I2
sssV5852
p123
(dp124
g3
F0.5
sg4
(dp125
g6
I1219
sg7
I38470
sg8
I10973
sg9
I48217
sg10
I5
sg11
I39375
sg12
I22299
sg13
I5
sg14
I81
sg15
I2460
sg16
I702
sg17
I2106
sg18
I52019
sg19
I0
sg20
I8
sssV5853
p126
(dp127
g3
F0.5
sg4
(dp128
g6
I286
sg7
I8725
sg8
I2546
sg9
I10293
sg10
I0
sg11
I8453
sg12
I5702
sg13
I0
sg14
I28
sg15
I262
sg16
I161
sg17
I370
sg18
I10737
sg19
I0
sg20
I0
sssV5858
p129
(dp130
g3
F0.5
sg4
(dp131
g6
I487
sg7
I13508
sg8
I3619
sg9
I17420
sg10
I0
sg11
I13691
sg12
I8568
sg13
I0
sg14
I22
sg15
I794
sg16
I219
sg17
I572
sg18
I19116
sg19
I0
sg20
I1
sssV5859
p132
(dp133
g3
F0.5
sg4
(dp134
g6
I15
sg7
I530
sg8
I126
sg9
I427
sg10
I0
sg11
I338
sg12
I281
sg13
I0
sg14
I2
sg15
I91
sg16
I13
sg17
I15
sg18
I595
sg19
I0
sg20
I0
sssV3773
p135
(dp136
g3
F0.5
sg4
(dp137
g6
I1505
sg7
I42433
sg8
I13645
sg9
I56613
sg10
I0
sg11
I44401
sg12
I29778
sg13
I0
sg14
I64
sg15
I3199
sg16
I768
sg17
I2452
sg18
I61785
sg19
I0
sg20
I1
sssV3772
p138
(dp139
g3
F0.5
sg4
(dp140
g6
I30
sg7
I598
sg8
I121
sg9
I810
sg10
I0
sg11
I614
sg12
I255
sg13
I0
sg14
I4
sg15
I46
sg16
I9
sg17
I29
sg18
I1128
sg19
I0
sg20
I0
sssV3771
p141
(dp142
g3
F0.5
sg4
(dp143
g6
I2743
sg7
I76973
sg8
I21870
sg9
I102918
sg10
I4
sg11
I84377
sg12
I52113
sg13
I4
sg14
I160
sg15
I4109
sg16
I1535
sg17
I3946
sg18
I102415
sg19
I0
sg20
I8
sssV3770
p144
(dp145
g3
F0.5
sg4
(dp146
g6
I730
sg7
I26440
sg8
I6477
sg9
I31752
sg10
I0
sg11
I25942
sg12
I16214
sg13
I0
sg14
I54
sg15
I1741
sg16
I448
sg17
I1251
sg18
I32914
sg19
I0
sg20
I1
sssV3777
p147
(dp148
g3
F0.5
sg4
(dp149
g6
I134
sg7
I4559
sg8
I1238
sg9
I6069
sg10
I0
sg11
I4745
sg12
I2638
sg13
I0
sg14
I15
sg15
I442
sg16
I78
sg17
I203
sg18
I6329
sg19
I0
sg20
I0
sssV3776
p150
(dp151
g3
F0.5
sg4
(dp152
g6
I24
sg7
I709
sg8
I134
sg9
I726
sg10
I0
sg11
I594
sg12
I392
sg13
I0
sg14
I3
sg15
I45
sg16
I11
sg17
I40
sg18
I820
sg19
I0
sg20
I0
sssV3775
p153
(dp154
g3
F0.5
sg4
(dp155
g6
I80
sg7
I2985
sg8
I928
sg9
I3993
sg10
I1
sg11
I3220
sg12
I1861
sg13
I1
sg14
I5
sg15
I439
sg16
I57
sg17
I137
sg18
I4095
sg19
I0
sg20
I1
sssV3774
p156
(dp157
g3
F0.5
sg4
(dp158
g6
I28
sg7
I914
sg8
I328
sg9
I1379
sg10
I0
sg11
I1170
sg12
I823
sg13
I0
sg14
I2
sg15
I60
sg16
I38
sg17
I89
sg18
I1485
sg19
I0
sg20
I0
sssV3779
p159
(dp160
g3
F0.5
sg4
(dp161
g6
I40
sg7
I1264
sg8
I343
sg9
I1421
sg10
I0
sg11
I1216
sg12
I614
sg13
I0
sg14
I7
sg15
I69
sg16
I24
sg17
I41
sg18
I1485
sg19
I0
sg20
I0
sssV3778
p162
(dp163
g3
F0.5
sg4
(dp164
g6
I11087
sg7
I309710
sg8
I97073
sg9
I392033
sg10
I18
sg11
I323863
sg12
I207125
sg13
I18
sg14
I529
sg15
I17563
sg16
I6266
sg17
I18997
sg18
I425545
sg19
I0
sg20
I36
sssV270
p165
(dp166
g3
F0.5
sg4
(dp167
g6
I180
sg7
I4869
sg8
I1472
sg9
I6527
sg10
I1
sg11
I5705
sg12
I3454
sg13
I1
sg14
I8
sg15
I239
sg16
I86
sg17
I231
sg18
I7504
sg19
I0
sg20
I2
sssV271
p168
(dp169
g3
F0.5
sg4
(dp170
g6
I1095
sg7
I34033
sg8
I9943
sg9
I43326
sg10
I1
sg11
I35627
sg12
I22343
sg13
I1
sg14
I88
sg15
I2732
sg16
I669
sg17
I2147
sg18
I47589
sg19
I0
sg20
I3
sssV272
p171
(dp172
g3
F0.5
sg4
(dp173
g6
I2735
sg7
I76700
sg8
I26581
sg9
I102850
sg10
I4
sg11
I85237
sg12
I53145
sg13
I4
sg14
I140
sg15
I6083
sg16
I1652
sg17
I4764
sg18
I111169
sg19
I0
sg20
I7
sssV273
p174
(dp175
g3
F0.5
sg4
(dp176
g6
I435
sg7
I11668
sg8
I4061
sg9
I15179
sg10
I1
sg11
I13824
sg12
I9394
sg13
I1
sg14
I19
sg15
I871
sg16
I265
sg17
I662
sg18
I16296
sg19
I0
sg20
I1
sssV274
p177
(dp178
g3
F0.5
sg4
(dp179
g6
I225
sg7
I7631
sg8
I2356
sg9
I9324
sg10
I0
sg11
I7769
sg12
I4405
sg13
I0
sg14
I23
sg15
I570
sg16
I100
sg17
I354
sg18
I10302
sg19
I0
sg20
I0
sssV275
p180
(dp181
g3
F0.5
sg4
(dp182
g6
I75
sg7
I2497
sg8
I1091
sg9
I3292
sg10
I0
sg11
I2952
sg12
I1572
sg13
I0
sg14
I3
sg15
I156
sg16
I39
sg17
I168
sg18
I3656
sg19
I0
sg20
I0
sssV276
p183
(dp184
g3
F0.5
sg4
(dp185
g6
I4
sg7
I157
sg8
I85
sg9
I257
sg10
I0
sg11
I181
sg12
I126
sg13
I0
sg14
I0
sg15
I6
sg16
I6
sg17
I11
sg18
I231
sg19
I0
sg20
I0
sssV277
p186
(dp187
g3
F0.5
sg4
(dp188
g6
I14
sg7
I154
sg8
I42
sg9
I176
sg10
I0
sg11
I178
sg12
I63
sg13
I0
sg14
I2
sg15
I11
sg16
I4
sg17
I8
sg18
I190
sg19
I0
sg20
I0
sssV278
p189
(dp190
g3
F0.5
sg4
(dp191
g6
I538
sg7
I12148
sg8
I3902
sg9
I18092
sg10
I0
sg11
I14316
sg12
I10565
sg13
I0
sg14
I41
sg15
I761
sg16
I279
sg17
I640
sg18
I18154
sg19
I0
sg20
I1
sssV279
p192
(dp193
g3
F0.5
sg4
(dp194
g6
I18
sg7
I645
sg8
I301
sg9
I926
sg10
I0
sg11
I787
sg12
I666
sg13
I0
sg14
I3
sg15
I37
sg16
I22
sg17
I19
sg18
I947
sg19
I0
sg20
I0
sssV4645
p195
(dp196
g3
F0.5
sg4
(dp197
g6
I170
sg7
I5058
sg8
I1453
sg9
I6904
sg10
I1
sg11
I6023
sg12
I4094
sg13
I1
sg14
I15
sg15
I241
sg16
I122
sg17
I272
sg18
I7506
sg19
I0
sg20
I2
sssV4659
p198
(dp199
g3
F0.5
sg4
(dp200
g6
I493
sg7
I14779
sg8
I4526
sg9
I17573
sg10
I1
sg11
I13753
sg12
I10557
sg13
I1
sg14
I39
sg15
I314
sg16
I289
sg17
I920
sg18
I19315
sg19
I0
sg20
I2
sssV4658
p201
(dp202
g3
F0.5
sg4
(dp203
g6
I3847
sg7
I108319
sg8
I31768
sg9
I138941
sg10
I1
sg11
I111334
sg12
I70422
sg13
I1
sg14
I228
sg15
I6118
sg16
I1939
sg17
I5571
sg18
I143454
sg19
I0
sg20
I5
sssV5854
p204
(dp205
g3
F0.5
sg4
(dp206
g6
I2042
sg7
I58132
sg8
I18847
sg9
I75429
sg10
I3
sg11
I59389
sg12
I43282
sg13
I3
sg14
I103
sg15
I3334
sg16
I1396
sg17
I4337
sg18
I79816
sg19
I0
sg20
I4
sssV3383
p207
(dp208
g3
F0.5
sg4
(dp209
g6
I30
sg7
I860
sg8
I240
sg9
I1211
sg10
I0
sg11
I898
sg12
I559
sg13
I0
sg14
I1
sg15
I38
sg16
I6
sg17
I67
sg18
I1176
sg19
I0
sg20
I0
sssV5259
p210
(dp211
g3
F0.5
sg4
(dp212
g6
I14
sg7
I449
sg8
I97
sg9
I458
sg10
I0
sg11
I367
sg12
I246
sg13
I0
sg14
I1
sg15
I36
sg16
I5
sg17
I12
sg18
I496
sg19
I0
sg20
I0
sssV799
p213
(dp214
g3
F0.5
sg4
(dp215
g6
I25
sg7
I475
sg8
I162
sg9
I752
sg10
I0
sg11
I573
sg12
I283
sg13
I0
sg14
I0
sg15
I55
sg16
I4
sg17
I20
sg18
I666
sg19
I0
sg20
I0
sssV2143
p216
(dp217
g3
F0.5
sg4
(dp218
g6
I144
sg7
I4364
sg8
I1750
sg9
I5835
sg10
I0
sg11
I4998
sg12
I3808
sg13
I0
sg14
I18
sg15
I332
sg16
I107
sg17
I223
sg18
I5779
sg19
I0
sg20
I0
sssV108
p219
(dp220
g3
F0.5
sg4
(dp221
g6
I23
sg7
I511
sg8
I130
sg9
I574
sg10
I0
sg11
I459
sg12
I280
sg13
I0
sg14
I1
sg15
I22
sg16
I5
sg17
I22
sg18
I595
sg19
I0
sg20
I0
sssV109
p222
(dp223
g3
F0.5
sg4
(dp224
g6
I90
sg7
I2163
sg8
I561
sg9
I2974
sg10
I0
sg11
I2398
sg12
I1481
sg13
I0
sg14
I6
sg15
I231
sg16
I41
sg17
I98
sg18
I3004
sg19
I0
sg20
I0
sssV102
p225
(dp226
g3
F0.5
sg4
(dp227
g6
I237
sg7
I5892
sg8
I1600
sg9
I7876
sg10
I0
sg11
I5944
sg12
I4297
sg13
I0
sg14
I12
sg15
I413
sg16
I98
sg17
I291
sg18
I8129
sg19
I0
sg20
I0
sssV103
p228
(dp229
g3
F0.5
sg4
(dp230
g6
I174
sg7
I4979
sg8
I1609
sg9
I5640
sg10
I0
sg11
I4495
sg12
I3135
sg13
I0
sg14
I7
sg15
I177
sg16
I119
sg17
I380
sg18
I5893
sg19
I0
sg20
I1
sssV100
p231
(dp232
g3
F0.5
sg4
(dp233
g6
I76
sg7
I1940
sg8
I493
sg9
I2762
sg10
I0
sg11
I2308
sg12
I1447
sg13
I0
sg14
I3
sg15
I137
sg16
I37
sg17
I113
sg18
I2631
sg19
I0
sg20
I0
sssV101
p234
(dp235
g3
F0.5
sg4
(dp236
g6
I157
sg7
I4230
sg8
I1240
sg9
I5090
sg10
I0
sg11
I4050
sg12
I2320
sg13
I0
sg14
I5
sg15
I235
sg16
I61
sg17
I217
sg18
I5254
sg19
I0
sg20
I0
sssV106
p237
(dp238
g3
F0.5
sg4
(dp239
g6
I16
sg7
I808
sg8
I282
sg9
I999
sg10
I0
sg11
I844
sg12
I633
sg13
I0
sg14
I3
sg15
I68
sg16
I7
sg17
I20
sg18
I947
sg19
I0
sg20
I0
sssV107
p240
(dp241
g3
F0.5
sg4
(dp242
g6
I176
sg7
I5114
sg8
I1296
sg9
I6274
sg10
I1
sg11
I5113
sg12
I3057
sg13
I1
sg14
I17
sg15
I449
sg16
I123
sg17
I166
sg18
I6557
sg19
I0
sg20
I1
sssV104
p243
(dp244
g3
F0.5
sg4
(dp245
g6
I19
sg7
I490
sg8
I227
sg9
I685
sg10
I0
sg11
I692
sg12
I378
sg13
I0
sg14
I3
sg15
I55
sg16
I5
sg17
I26
sg18
I990
sg19
I0
sg20
I0
sssV105
p246
(dp247
g3
F0.5
sg4
(dp248
g6
I52
sg7
I1217
sg8
I236
sg9
I1490
sg10
I0
sg11
I1202
sg12
I622
sg13
I0
sg14
I2
sg15
I172
sg16
I16
sg17
I65
sg18
I1653
sg19
I0
sg20
I0
sssV1004
p249
(dp250
g3
F0.5
sg4
(dp251
g6
I2714
sg7
I80150
sg8
I26748
sg9
I105452
sg10
I7
sg11
I85385
sg12
I51517
sg13
I7
sg14
I180
sg15
I5566
sg16
I1677
sg17
I4619
sg18
I108370
sg19
I0
sg20
I10
sssV3519
p252
(dp253
g3
F0.5
sg4
(dp254
g6
I5323
sg7
I147284
sg8
I50654
sg9
I194874
sg10
I5
sg11
I156469
sg12
I100596
sg13
I5
sg14
I276
sg15
I8040
sg16
I2924
sg17
I9468
sg18
I210962
sg19
I0
sg20
I13
sssV3518
p255
(dp256
g3
F0.5
sg4
(dp257
g6
I3120
sg7
I89448
sg8
I27137
sg9
I111053
sg10
I2
sg11
I86607
sg12
I57581
sg13
I2
sg14
I166
sg15
I4858
sg16
I1608
sg17
I4784
sg18
I120307
sg19
I0
sg20
I7
sssV3513
p258
(dp259
g3
F0.5
sg4
(dp260
g6
I1078
sg7
I32132
sg8
I10351
sg9
I42052
sg10
I1
sg11
I34641
sg12
I21636
sg13
I1
sg14
I46
sg15
I1751
sg16
I595
sg17
I1888
sg18
I46366
sg19
I0
sg20
I1
sssV3512
p261
(dp262
g3
F0.5
sg4
(dp263
g6
I2063
sg7
I58781
sg8
I18255
sg9
I75063
sg10
I2
sg11
I58913
sg12
I40522
sg13
I2
sg14
I164
sg15
I3738
sg16
I1214
sg17
I3412
sg18
I79019
sg19
I0
sg20
I5
sssV3511
p264
(dp265
g3
F0.5
sg4
(dp266
g6
I516
sg7
I13980
sg8
I3440
sg9
I19521
sg10
I0
sg11
I15952
sg12
I8435
sg13
I0
sg14
I53
sg15
I1453
sg16
I250
sg17
I611
sg18
I19707
sg19
I0
sg20
I1
sssV3510
p267
(dp268
g3
F0.5
sg4
(dp269
g6
I62
sg7
I1565
sg8
I646
sg9
I1994
sg10
I0
sg11
I1664
sg12
I888
sg13
I0
sg14
I4
sg15
I91
sg16
I27
sg17
I78
sg18
I1954
sg19
I0
sg20
I0
sssV3517
p270
(dp271
g3
F0.5
sg4
(dp272
g6
I189
sg7
I5011
sg8
I1673
sg9
I6985
sg10
I1
sg11
I5300
sg12
I3475
sg13
I1
sg14
I9
sg15
I669
sg16
I127
sg17
I209
sg18
I7140
sg19
I0
sg20
I1
sssV3516
p273
(dp274
g3
F0.5
sg4
(dp275
g6
I292
sg7
I8883
sg8
I2799
sg9
I11434
sg10
I0
sg11
I8707
sg12
I4833
sg13
I0
sg14
I13
sg15
I677
sg16
I151
sg17
I374
sg18
I11329
sg19
I0
sg20
I0
sssV3515
p276
(dp277
g3
F0.5
sg4
(dp278
g6
I128
sg7
I3251
sg8
I741
sg9
I3980
sg10
I0
sg11
I3410
sg12
I2237
sg13
I0
sg14
I6
sg15
I212
sg16
I62
sg17
I117
sg18
I4562
sg19
I0
sg20
I0
sssV1866
p279
(dp280
g3
F0.5
sg4
(dp281
g6
I220
sg7
I7090
sg8
I2328
sg9
I8363
sg10
I0
sg11
I6996
sg12
I4211
sg13
I0
sg14
I10
sg15
I508
sg16
I106
sg17
I349
sg18
I9316
sg19
I0
sg20
I0
sssV3724
p282
(dp283
g3
F0.5
sg4
(dp284
g6
I4132
sg7
I114236
sg8
I35664
sg9
I146051
sg10
I5
sg11
I115058
sg12
I74667
sg13
I5
sg14
I345
sg15
I7543
sg16
I2189
sg17
I5555
sg18
I160510
sg19
I0
sg20
I10
sssV3725
p285
(dp286
g3
F0.5
sg4
(dp287
g6
I7
sg7
I159
sg8
I62
sg9
I304
sg10
I0
sg11
I199
sg12
I173
sg13
I0
sg14
I0
sg15
I15
sg16
I4
sg17
I9
sg18
I300
sg19
I0
sg20
I0
sssV4686
p288
(dp289
g3
F0.5
sg4
(dp290
g6
I109
sg7
I2940
sg8
I764
sg9
I3446
sg10
I0
sg11
I2546
sg12
I1498
sg13
I0
sg14
I5
sg15
I282
sg16
I33
sg17
I80
sg18
I3829
sg19
I0
sg20
I0
sssV4687
p291
(dp292
g3
F0.5
sg4
(dp293
g6
I163
sg7
I4375
sg8
I1249
sg9
I5938
sg10
I0
sg11
I4969
sg12
I2695
sg13
I0
sg14
I9
sg15
I237
sg16
I92
sg17
I294
sg18
I6217
sg19
I0
sg20
I0
sssV4684
p294
(dp295
g3
F0.5
sg4
(dp296
g6
I63
sg7
I1289
sg8
I443
sg9
I1731
sg10
I0
sg11
I1381
sg12
I901
sg13
I0
sg14
I1
sg15
I122
sg16
I18
sg17
I80
sg18
I1830
sg19
I0
sg20
I0
sssV4685
p297
(dp298
g3
F0.5
sg4
(dp299
g6
I335
sg7
I10675
sg8
I3263
sg9
I12505
sg10
I0
sg11
I9953
sg12
I6492
sg13
I0
sg14
I15
sg15
I609
sg16
I167
sg17
I515
sg18
I13367
sg19
I0
sg20
I0
sssV4682
p300
(dp301
g3
F0.5
sg4
(dp302
g6
I7227
sg7
I216991
sg8
I68439
sg9
I264455
sg10
I10
sg11
I217121
sg12
I142576
sg13
I10
sg14
I427
sg15
I15174
sg16
I4159
sg17
I11658
sg18
I290764
sg19
I0
sg20
I21
sssV4683
p303
(dp304
g3
F0.5
sg4
(dp305
g6
I58
sg7
I1285
sg8
I420
sg9
I1938
sg10
I0
sg11
I1488
sg12
I994
sg13
I0
sg14
I0
sg15
I139
sg16
I25
sg17
I101
sg18
I2017
sg19
I0
sg20
I0
sssV2100
p306
(dp307
g3
F0.5
sg4
(dp308
g6
I1083
sg7
I32676
sg8
I10780
sg9
I42463
sg10
I2
sg11
I35093
sg12
I21124
sg13
I2
sg14
I76
sg15
I1640
sg16
I610
sg17
I1979
sg18
I44863
sg19
I0
sg20
I2
sssV5111
p309
(dp310
g3
F0.5
sg4
(dp311
g6
I7188
sg7
I225346
sg8
I71900
sg9
I278042
sg10
I7
sg11
I229802
sg12
I151069
sg13
I8
sg14
I464
sg15
I12523
sg16
I4381
sg17
I12347
sg18
I306970
sg19
I0
sg20
I18
sssV5110
p312
(dp313
g3
F0.5
sg4
(dp314
g6
I3
sg7
I225
sg8
I62
sg9
I213
sg10
I0
sg11
I214
sg12
I154
sg13
I0
sg14
I0
sg15
I15
sg16
I4
sg17
I6
sg18
I300
sg19
I0
sg20
I0
sssV1200
p315
(dp316
g3
F0.5
sg4
(dp317
g6
I18
sg7
I466
sg8
I180
sg9
I588
sg10
I0
sg11
I488
sg12
I252
sg13
I0
sg14
I0
sg15
I55
sg16
I5
sg17
I20
sg18
I741
sg19
I0
sg20
I0
sss.