(dp0
V5981
p1
(dp2
S'alpha'
p3
F0.5
sS'weights'
p4
(dp5
V@10
p6
I852
sVrating
p7
I1688
sV@12
p8
I73730
sVrating_count
p9
I6
sVyear
p10
I1996
sV@2
p11
I13998
sV@3
p12
I67614
sV@1
p13
I51032
sV@6
p14
I33072
sV@7
p15
I4
sV@4
p16
I4
sV@5
p17
I55410
sV@8
p18
I182
sV@9
p19
I4900
sssV1200
p20
(dp21
g3
F0.5
sg4
(dp22
g6
I10
sg7
I36
sg8
I1482
sg10
I40
sg11
I360
sg12
I1176
sg13
I932
sg14
I504
sg17
I976
sg19
I110
sssV5984
p23
(dp24
g3
F0.5
sg4
(dp25
g6
I6
sg7
I26
sg8
I756
sg17
I454
sg11
I178
sg12
I714
sg13
I558
sg14
I202
sg10
I36
sg19
I42
sssV5988
p26
(dp27
g3
F0.5
sg4
(dp28
g6
I108
sg7
I140
sg8
I6006
sg10
I308
sg11
I1650
sg12
I5218
sg13
I5156
sg14
I2686
sg17
I4046
sg18
I4
sg19
I140
sssV5989
p29
(dp30
g3
F0.5
sg4
(dp31
g6
I72
sg7
I124
sg8
I5852
sg10
I282
sg11
I1452
sg12
I4922
sg13
I4334
sg14
I2588
sg17
I3794
sg18
I2
sg19
I274
sssV3383
p32
(dp33
g3
F0.5
sg4
(dp34
g6
I12
sg7
I60
sg8
I2352
sg10
I134
sg11
I480
sg12
I2422
sg13
I1720
sg14
I1118
sg17
I1796
sg18
I2
sg19
I76
sssV5982
p35
(dp36
g3
F0.5
sg4
(dp37
g6
I194
sg7
I418
sg8
I15008
sg10
I604
sg11
I2680
sg12
I14370
sg13
I11298
sg14
I6640
sg17
I11350
sg18
I30
sg19
I570
sssV5983
p38
(dp39
g3
F0.5
sg4
(dp40
g6
I12
sg7
I16
sg8
I702
sg10
I18
sg11
I104
sg12
I758
sg13
I652
sg14
I246
sg17
I556
sg18
I2
sg19
I72
sssV5980
p41
(dp42
g3
F0.5
sg4
(dp43
g6
I542
sg7
I962
sg8
I41426
sg10
I968
sg11
I6598
sg12
I37990
sg13
I30398
sg14
I16510
sg17
I31690
sg18
I82
sg19
I2686
sssV5259
p44
(dp45
g3
F0.5
sg4
(dp46
g6
I10
sg7
I28
sg8
I992
sg10
I24
sg11
I194
sg12
I916
sg13
I898
sg14
I492
sg17
I734
sg18
I2
sg19
I72
sssV5986
p47
(dp48
g3
F0.5
sg4
(dp49
g6
I180
sg7
I302
sg8
I13344
sg10
I382
sg11
I2902
sg12
I13032
sg13
I9612
sg14
I7208
sg17
I9794
sg18
I38
sg19
I768
sssV5987
p50
(dp51
g3
F0.5
sg4
(dp52
g6
I54
sg7
I88
sg8
I3192
sg10
I186
sg11
I856
sg12
I3148
sg13
I2558
sg14
I2120
sg17
I2704
sg18
I8
sg19
I160
sssV799
p53
(dp54
g3
F0.5
sg4
(dp55
g6
I8
sg7
I50
sg8
I1332
sg10
I40
sg11
I324
sg12
I1504
sg13
I950
sg14
I566
sg17
I1146
sg19
I110
sssV5985
p56
(dp57
g3
F0.5
sg4
(dp58
g6
I128
sg7
I232
sg8
I9506
sg10
I380
sg11
I2112
sg12
I7444
sg13
I6596
sg14
I3948
sg17
I6344
sg18
I18
sg19
I284
sssV4736
p59
(dp60
g3
F0.5
sg4
(dp61
g6
I1302
sg7
I2444
sg8
I96430
sg9
I4
sg10
I4526
sg11
I21012
sg12
I84582
sg13
I71942
sg14
I47018
sg15
I2
sg16
I2
sg17
I69968
sg18
I96
sg19
I2536
sssV4732
p62
(dp63
g3
F0.5
sg4
(dp64
g6
I7352
sg7
I11516
sg8
I446970
sg9
I38
sg10
I16026
sg11
I90910
sg12
I417590
sg13
I320118
sg14
I223746
sg15
I26
sg16
I26
sg17
I349788
sg18
I832
sg19
I20228
sssV4733
p65
(dp66
g3
F0.5
sg4
(dp67
g6
I212
sg7
I264
sg8
I10302
sg9
I4
sg10
I420
sg11
I2328
sg12
I10360
sg13
I6398
sg14
I6538
sg15
I2
sg16
I2
sg17
I8798
sg18
I32
sg19
I258
sssV2918
p68
(dp69
g3
F0.5
sg4
(dp70
g6
I2328
sg7
I3554
sg8
I141024
sg9
I8
sg10
I6160
sg11
I34558
sg12
I131078
sg13
I99592
sg14
I72450
sg15
I2
sg16
I2
sg17
I108860
sg18
I148
sg19
I6458
sssV2919
p71
(dp72
g3
F0.5
sg4
(dp73
g6
I376
sg7
I530
sg8
I22956
sg9
I2
sg10
I976
sg11
I5428
sg12
I22096
sg13
I15006
sg14
I12692
sg15
I2
sg16
I2
sg17
I18424
sg18
I42
sg19
I730
sssV4730
p74
(dp75
g3
F0.5
sg4
(dp76
g6
I6
sg7
I14
sg8
I650
sg10
I112
sg11
I82
sg12
I580
sg13
I298
sg14
I238
sg17
I418
sg19
I30
sssV4731
p77
(dp78
g3
F0.5
sg4
(dp79
g6
I54
sg7
I62
sg8
I2970
sg10
I74
sg11
I542
sg12
I2512
sg13
I2230
sg14
I1668
sg17
I2222
sg18
I4
sg19
I382
sssV1866
p80
(dp81
g3
F0.5
sg4
(dp82
g6
I212
sg7
I440
sg8
I18632
sg10
I698
sg11
I4656
sg12
I16726
sg13
I14180
sg14
I8422
sg17
I13992
sg18
I20
sg19
I1018
sssV3724
p83
(dp84
g3
F0.5
sg4
(dp85
g6
I4378
sg7
I8264
sg8
I321020
sg9
I20
sg17
I230116
sg11
I71328
sg12
I292102
sg13
I228472
sg14
I149336
sg15
I10
sg16
I10
sg10
I11110
sg18
I690
sg19
I15100
sssV3725
p86
(dp87
g3
F0.5
sg4
(dp88
g6
I8
sg7
I14
sg8
I600
sg10
I18
sg11
I124
sg12
I608
sg13
I318
sg14
I346
sg17
I398
sg19
I30
sssV4737
p89
(dp90
g3
F0.5
sg4
(dp91
g6
I136
sg7
I252
sg8
I11556
sg9
I2
sg10
I510
sg11
I2800
sg12
I9850
sg13
I8228
sg14
I4714
sg17
I8290
sg18
I12
sg19
I510
sssV4686
p92
(dp93
g3
F0.5
sg4
(dp94
g6
I66
sg7
I218
sg8
I7658
sg10
I160
sg11
I1528
sg12
I6892
sg13
I5880
sg14
I2996
sg17
I5092
sg18
I10
sg19
I564
sssV4687
p95
(dp96
g3
F0.5
sg4
(dp97
g6
I184
sg7
I326
sg8
I12434
sg10
I588
sg11
I2498
sg12
I11876
sg13
I8750
sg14
I5390
sg17
I9938
sg18
I18
sg19
I474
sssV4684
p98
(dp99
g3
F0.5
sg4
(dp100
g6
I36
sg7
I126
sg8
I3660
sg10
I160
sg11
I886
sg12
I3462
sg13
I2578
sg14
I1802
sg17
I2762
sg18
I2
sg19
I246
sssV4685
p101
(dp102
g3
F0.5
sg4
(dp103
g6
I334
sg7
I670
sg8
I26734
sg10
I1030
sg11
I6526
sg12
I25010
sg13
I21350
sg14
I12984
sg17
I19906
sg18
I30
sg19
I1224
sssV4682
p104
(dp105
g3
F0.5
sg4
(dp106
g6
I8318
sg7
I14454
sg8
I581528
sg9
I42
sg10
I23316
sg11
I136878
sg12
I528910
sg13
I433982
sg14
I285158
sg15
I20
sg16
I20
sg17
I434242
sg18
I854
sg19
I30374
sssV4683
p107
(dp108
g3
F0.5
sg4
(dp109
g6
I50
sg7
I116
sg8
I4034
sg10
I202
sg11
I840
sg12
I3876
sg13
I2570
sg14
I1988
sg17
I2976
sg19
I280
sssV4734
p110
(dp111
g3
F0.5
sg4
(dp112
g6
I370
sg7
I668
sg8
I26432
sg9
I4
sg17
I20456
sg11
I6132
sg12
I24776
sg13
I19470
sg14
I15018
sg10
I866
sg18
I48
sg19
I1450
sssV4735
p113
(dp114
g3
F0.5
sg4
(dp115
g6
I156
sg7
I236
sg8
I10506
sg9
I2
sg10
I294
sg11
I1736
sg12
I10270
sg13
I6764
sg14
I5552
sg15
I2
sg16
I2
sg17
I8180
sg18
I18
sg19
I570
sssV2316
p116
(dp117
g3
F0.5
sg4
(dp118
g6
I304
sg7
I560
sg8
I22058
sg10
I656
sg11
I5212
sg12
I21200
sg13
I15778
sg14
I11724
sg17
I16434
sg18
I18
sg19
I570
sssV2317
p119
(dp120
g3
F0.5
sg4
(dp121
g6
I32
sg7
I96
sg8
I3540
sg10
I136
sg11
I806
sg12
I3108
sg13
I2356
sg14
I1666
sg17
I2556
sg18
I2
sg19
I240
sssV4738
p122
(dp123
g3
F0.5
sg4
(dp124
g6
I398
sg7
I830
sg8
I34072
sg10
I980
sg11
I6426
sg12
I33240
sg13
I25996
sg14
I17236
sg17
I27018
sg18
I60
sg19
I2190
sssV4739
p125
(dp126
g3
F0.5
sg4
(dp127
g6
I188
sg7
I244
sg8
I10922
sg9
I4
sg17
I8280
sg11
I2270
sg12
I9952
sg13
I8302
sg14
I4382
sg15
I4
sg16
I4
sg10
I388
sg18
I22
sg19
I782
sssV2312
p128
(dp129
g3
F0.5
sg4
(dp130
g6
I18
sg7
I36
sg8
I1190
sg10
I40
sg11
I250
sg12
I1160
sg13
I866
sg14
I816
sg17
I878
sg19
I42
sssV2313
p131
(dp132
g3
F0.5
sg4
(dp133
g6
I32
sg7
I50
sg8
I1640
sg17
I1254
sg11
I260
sg12
I1668
sg13
I1164
sg14
I594
sg10
I36
sg18
I2
sg19
I112
sssV2310
p134
(dp135
g3
F0.5
sg4
(dp136
g6
I140
sg9
I4
sg8
I9508
sg7
I208
sg10
I416
sg11
I2654
sg12
I9284
sg13
I6930
sg14
I4642
sg15
I2
sg16
I2
sg17
I7660
sg18
I8
sg19
I424
sssV2311
p137
(dp138
g3
F0.5
sg4
(dp139
g6
I8
sg7
I10
sg8
I462
sg10
I12
sg11
I160
sg12
I512
sg13
I602
sg14
I236
sg17
I450
sg19
I20
sssV5854
p140
(dp141
g3
F0.5
sg4
(dp142
g6
I2792
sg7
I4084
sg8
I159632
sg9
I8
sg17
I118778
sg11
I37694
sg12
I150858
sg13
I116264
sg14
I86564
sg15
I6
sg16
I6
sg10
I8674
sg18
I206
sg19
I6684
sssV5855
p143
(dp144
g3
F0.5
sg4
(dp145
g6
I52
sg7
I60
sg8
I2550
sg10
I112
sg11
I732
sg12
I2236
sg13
I1602
sg14
I1342
sg17
I1936
sg18
I8
sg19
I166
sssV5856
p146
(dp147
g3
F0.5
sg4
(dp148
g6
I28
sg7
I106
sg8
I4032
sg10
I150
sg11
I708
sg12
I3940
sg13
I2764
sg14
I2040
sg17
I3368
sg18
I2
sg19
I160
sssV5857
p149
(dp150
g3
F0.5
sg4
(dp151
g6
I508
sg7
I1018
sg8
I37446
sg10
I1516
sg11
I8060
sg12
I36660
sg13
I27838
sg14
I15456
sg17
I30696
sg18
I92
sg19
I1238
sssV5850
p152
(dp153
g3
F0.5
sg4
(dp154
g6
I38
sg7
I84
sg8
I3306
sg17
I2032
sg11
I428
sg12
I2810
sg13
I1990
sg14
I980
sg10
I112
sg18
I4
sg19
I164
sssV5851
p155
(dp156
g3
F0.5
sg4
(dp157
g6
I318
sg7
I630
sg8
I25760
sg9
I4
sg10
I946
sg11
I4258
sg12
I23156
sg13
I16138
sg14
I11622
sg15
I2
sg16
I2
sg17
I17432
sg18
I70
sg19
I1836
sssV5852
p158
(dp159
g3
F0.5
sg4
(dp160
g6
I1404
sg7
I2438
sg8
I104038
sg9
I16
sg10
I4212
sg11
I21946
sg12
I96434
sg13
I76940
sg14
I44598
sg15
I10
sg16
I10
sg17
I78750
sg18
I162
sg19
I4920
sssV5853
p161
(dp162
g3
F0.5
sg4
(dp163
g6
I322
sg7
I572
sg8
I21474
sg10
I740
sg11
I5092
sg12
I20586
sg13
I17450
sg14
I11404
sg17
I16906
sg18
I56
sg19
I524
sssV5858
p164
(dp165
g3
F0.5
sg4
(dp166
g6
I438
sg7
I974
sg8
I38232
sg9
I2
sg10
I1144
sg11
I7238
sg12
I34840
sg13
I27016
sg14
I17136
sg17
I27382
sg18
I44
sg19
I1590
sss.