(dp0
Vrating
p1
F8.215633313112537
sVgenres
p2
F411.90272593045944
sVlanguage
p3
F1016.4182755763521
sVcountry
p4
F2143.7439833926132
sVdirectors
p5
F2.9087746575347455
sVfilming_locations
p6
F2084.215448866704
sVrating_count
p7
F0.23817872187606298
sVactors
p8
F70.40533736315618
sVwriters
p9
F301.951642178201
s.