(lp0
(lp1
V1029
p2
aV3780
p3
aa(lp4
V1106
p5
aV1259
p6
aa(lp7
V1116
p8
aV2849
p9
aa(lp10
V112
p11
aV5999
p12
aa(lp13
V1135
p14
aV1230
p15
aV1723
p16
aV2935
p17
aV3012
p18
aV3274
p19
aV5801
p20
aV729
p21
aa(lp22
g14
ag15
ag16
ag17
ag19
ag20
aV610
p23
ag21
aa(lp24
g14
ag15
ag17
ag19
aV3442
p25
ag20
ag23
ag21
aa(lp26
g14
ag15
ag18
ag19
ag20
aV698
p27
ag21
aa(lp28
g14
ag15
ag19
ag25
ag20
ag27
ag21
aa(lp29
g14
aV1665
p30
ag16
aV1761
p31
aV2132
p32
aa(lp33
g14
ag30
ag16
aV2137
p34
aa(lp35
g14
ag16
ag31
aV2004
p36
ag17
ag19
aa(lp37
g14
ag16
ag36
ag34
aV4893
p38
aa(lp39
g14
ag16
ag36
ag17
ag19
ag38
aa(lp40
g14
ag16
aV2088
p41
ag17
ag18
ag19
aa(lp42
g14
ag16
ag34
aV2200
p43
ag38
aa(lp44
g14
ag16
ag43
ag17
ag38
aa(lp45
g14
ag16
ag17
ag19
ag38
ag23
ag21
aa(lp46
g14
ag16
ag19
aV3812
p47
ag38
ag21
aa(lp48
g14
ag16
ag19
ag47
ag20
ag21
aa(lp49
g14
ag41
ag18
ag19
ag27
aa(lp50
g14
ag43
ag38
aV950
p51
aa(lp52
g14
ag43
aV5399
p53
ag51
aa(lp54
g14
aV5040
p55
aa(lp56
V114
p57
aV1337
p58
aV629
p59
aa(lp60
g57
aV1495
p61
ag59
aa(lp62
V1142
p63
aV2896
p64
aV3280
p65
aV3285
p66
aa(lp67
g63
aV5491
p68
aa(lp69
V1153
p70
aV1831
p71
aV3851
p72
aV4397
p73
aV812
p74
aa(lp75
g70
aV2861
p76
ag72
ag73
aa(lp77
g70
aV77
p78
aa(lp79
V1158
p80
aV3577
p81
aa(lp82
V1172
p83
aV1266
p84
aV1449
p85
aV2380
p86
aV2986
p87
aV3029
p88
ag65
aV3526
p89
aV3650
p90
aV5015
p91
aV5888
p92
aa(lp93
g83
ag84
ag85
ag86
ag88
ag65
ag89
ag90
aV3967
p94
ag91
ag92
aa(lp95
g83
ag84
ag85
ag87
ag88
ag65
ag89
ag90
ag91
aV5878
p96
aa(lp97
g83
ag84
ag85
ag88
ag65
ag89
ag90
ag94
ag91
ag96
aa(lp98
g83
ag85
aV1666
p99
ag86
ag87
ag88
ag65
ag89
ag90
aV3669
p100
aV5550
p101
aa(lp102
g83
ag85
ag86
ag87
ag88
ag65
ag89
ag90
ag100
aV3724
p103
ag91
ag101
ag92
aa(lp104
g83
ag85
ag86
ag88
ag65
ag89
ag90
ag100
ag103
ag94
ag91
ag101
ag92
aa(lp105
g83
ag85
ag87
ag88
ag65
ag89
ag90
ag91
ag101
ag96
aa(lp106
g83
ag85
ag88
ag65
ag89
ag90
ag94
ag91
ag101
ag96
aa(lp107
g83
ag99
ag86
aV2776
p108
ag87
ag88
ag65
ag89
ag90
ag100
aa(lp109
g83
ag86
ag108
ag87
ag88
ag65
ag89
ag90
ag100
ag92
aa(lp110
g83
ag86
ag108
ag88
ag65
ag89
ag90
ag100
ag94
ag92
aa(lp111
V118
p112
ag15
aV2054
p113
aV3353
p114
aV3414
p115
aV3679
p116
aV3853
p117
aV4889
p118
aV5103
p119
aa(lp120
g112
ag15
ag113
ag114
ag115
ag117
ag118
ag119
aV73
p121
aa(lp122
g112
ag15
ag113
ag115
ag117
ag118
ag119
ag27
ag121
aa(lp123
g112
ag15
ag113
aV3423
p124
ag116
ag117
ag118
aa(lp125
g112
ag15
ag113
ag124
ag117
ag118
ag27
aa(lp126
g112
ag15
ag114
ag115
ag116
aV3717
p127
ag117
ag118
aa(lp128
g112
ag15
ag114
ag115
ag127
ag117
ag118
ag21
aa(lp129
g112
ag15
ag114
ag115
ag117
ag118
ag119
ag21
ag121
aa(lp130
g112
ag15
ag114
ag115
aV575
p131
ag21
ag121
aa(lp132
g112
ag15
ag115
ag127
ag117
ag118
ag27
ag21
aa(lp133
g112
ag15
ag115
ag117
ag118
ag119
ag27
ag21
ag121
aa(lp134
g112
ag15
ag124
ag116
ag127
ag117
ag118
aa(lp135
g112
ag15
ag124
ag127
ag117
ag118
ag27
aa(lp136
g112
aV1392
p137
aV1592
p138
aV2866
p139
ag118
ag91
aa(lp140
g112
ag137
ag138
ag127
ag118
ag91
aa(lp141
g112
ag137
ag138
ag127
ag118
ag27
aa(lp142
g112
ag137
ag139
ag114
ag118
aa(lp143
g112
ag137
ag114
ag115
ag127
aV3746
p144
ag117
ag118
aa(lp145
g112
ag137
ag114
ag115
ag127
ag117
ag118
ag21
aa(lp146
g112
ag137
ag115
ag127
ag144
ag117
ag118
ag27
aa(lp147
g112
ag137
ag115
ag127
ag117
ag118
ag27
ag21
aa(lp148
g112
ag137
ag127
ag144
ag117
ag118
ag91
aa(lp149
g112
ag138
ag139
aV4258
p150
ag118
ag91
aa(lp151
g112
ag138
ag124
ag127
ag118
ag27
aa(lp152
g112
ag138
ag124
ag150
ag118
aV5684
p153
aa(lp154
g112
ag138
ag124
ag118
ag153
ag27
aa(lp155
g112
ag138
aV3770
p156
ag91
aa(lp157
g112
ag138
ag150
ag118
ag91
ag153
aa(lp158
g112
aV1714
p159
ag113
ag124
ag150
aa(lp160
g112
ag159
ag113
ag121
aa(lp161
g112
ag113
ag114
ag115
ag116
ag144
ag117
aV4470
p162
ag118
ag119
aa(lp163
g112
ag113
ag114
ag115
ag116
ag144
ag117
ag118
ag119
ag153
aa(lp164
g112
ag113
ag114
ag115
ag144
ag117
ag118
ag119
ag153
ag121
aa(lp165
g112
ag113
ag115
ag144
ag117
ag118
ag119
ag153
ag27
ag121
aa(lp166
g112
ag113
ag124
ag116
ag144
ag117
ag162
ag118
aa(lp167
g112
ag113
ag124
ag116
ag144
ag117
ag118
ag153
aa(lp168
g112
ag113
ag124
ag116
ag144
ag150
ag162
ag118
aa(lp169
g112
ag113
ag124
ag116
ag144
ag150
ag118
ag153
aa(lp170
g112
ag113
ag124
ag144
ag117
ag118
ag153
ag27
aa(lp171
g112
aV2620
p172
ag114
ag115
ag144
ag117
ag162
ag118
ag119
aa(lp173
g112
ag172
ag114
ag115
ag144
ag117
ag118
ag119
ag121
aa(lp174
g112
ag172
ag114
ag115
ag117
ag118
ag119
ag21
ag121
aa(lp175
g112
ag172
ag114
ag115
ag162
ag131
aa(lp176
g112
ag172
ag114
ag115
ag131
ag21
ag121
aa(lp177
g112
aV2824
p178
ag115
ag116
ag117
aa(lp179
g112
ag178
ag115
ag131
aa(lp180
g112
ag139
ag114
ag116
ag118
aa(lp181
g112
ag139
ag116
ag150
ag118
ag91
aa(lp182
g112
ag114
ag115
ag116
ag127
ag144
ag117
ag162
ag118
aa(lp183
g112
ag124
ag116
ag127
ag144
ag117
ag162
ag118
aa(lp184
g112
ag124
ag127
ag144
ag117
ag118
ag27
aa(lp185
g112
ag116
ag127
ag144
ag117
ag118
ag91
aa(lp186
g112
ag116
ag144
ag117
ag118
ag91
ag153
aa(lp187
g112
ag116
ag144
ag150
ag118
ag91
ag153
aa(lp188
V1207
p189
ag84
aV1425
p190
ag85
aV1698
p191
ag87
ag88
ag65
ag66
ag89
ag90
aV4510
p192
aV5387
p193
aV5636
p194
ag92
aa(lp195
g189
ag84
ag190
ag85
ag191
ag88
ag65
ag66
aV3401
p196
ag89
ag90
ag192
ag193
ag194
ag92
aa(lp197
g189
ag84
ag190
ag85
ag88
ag65
ag196
ag89
ag90
ag94
ag92
aa(lp198
g189
ag84
ag85
ag191
ag87
ag88
ag65
ag66
aV3425
p199
ag89
ag90
aV3683
p200
ag192
ag91
ag193
ag194
aa(lp201
g189
ag84
ag85
ag191
ag87
ag88
ag65
ag66
ag199
ag89
ag90
ag200
ag91
ag193
aV5493
p202
ag194
aa(lp203
g189
ag84
ag85
ag191
ag87
ag88
ag65
ag66
ag89
ag90
ag200
ag192
ag91
ag193
ag194
ag92
aa(lp204
g189
ag84
ag85
ag191
ag87
ag88
ag65
ag66
ag89
ag90
ag200
ag91
ag193
ag202
ag194
ag92
aa(lp205
g189
ag84
ag85
ag191
ag88
ag65
ag66
ag196
ag89
ag90
ag200
ag192
ag91
ag193
ag194
ag92
aa(lp206
g189
ag84
ag85
ag86
ag87
ag88
ag65
ag66
ag199
ag89
ag90
ag91
ag202
ag194
aa(lp207
g189
ag84
ag85
ag86
ag87
ag88
ag65
ag66
ag89
ag90
ag91
ag202
ag194
ag92
aa(lp208
g189
ag84
ag85
ag86
ag88
ag65
ag66
ag196
ag89
ag90
ag91
ag194
ag92
aa(lp209
g189
ag84
ag85
ag86
ag88
ag65
ag196
ag89
ag90
ag94
ag91
ag92
aa(lp210
g189
ag190
ag85
ag191
ag87
ag88
ag65
ag66
ag89
ag90
ag103
ag192
ag193
ag194
ag92
aa(lp211
g189
ag190
ag85
ag191
ag88
ag65
ag66
ag196
ag89
ag90
ag103
ag192
ag193
ag194
ag92
aa(lp212
g189
ag190
ag85
ag191
ag88
ag65
ag196
ag89
ag90
ag103
aV4021
p213
ag192
ag193
ag194
ag92
aa(lp214
g189
ag190
ag85
aV2743
p215
ag87
ag65
ag66
ag89
ag90
aa(lp216
g189
ag190
ag85
ag88
ag65
ag196
ag89
ag90
ag103
ag94
ag92
aa(lp217
g189
ag85
ag99
ag86
ag215
ag87
ag65
ag66
ag199
ag89
ag90
ag100
ag101
aa(lp218
g189
ag85
ag99
ag86
ag87
ag88
ag65
ag66
ag199
ag89
ag90
ag100
ag144
ag101
ag194
aa(lp219
g189
ag85
ag99
ag86
ag87
ag88
ag65
ag66
ag199
ag89
ag90
ag100
ag202
ag101
ag194
aa(lp220
g189
ag85
ag99
ag215
aV2857
p221
ag87
ag65
ag66
ag199
ag89
ag90
ag100
ag101
aa(lp222
g189
ag85
ag99
ag221
ag87
ag88
ag65
ag66
ag199
ag89
ag90
ag100
ag144
ag101
ag194
aa(lp223
g189
ag85
ag99
ag221
ag88
ag65
ag66
ag199
ag90
ag100
ag144
ag117
ag101
ag194
aa(lp224
g189
ag85
ag191
ag221
ag87
ag88
ag65
ag66
ag199
ag89
ag90
ag200
ag192
ag193
ag101
ag194
aa(lp225
g189
ag85
ag191
ag221
ag88
ag65
ag66
ag196
ag89
ag90
ag200
ag192
ag193
ag101
ag194
ag153
aa(lp226
g189
ag85
ag191
ag221
ag88
ag65
ag66
ag199
ag89
ag90
ag200
ag192
ag193
ag101
ag194
ag153
aa(lp227
g189
ag85
ag191
ag221
ag88
ag65
ag196
ag89
ag90
ag213
ag192
ag193
ag101
ag194
ag153
aa(lp228
g189
ag85
ag191
ag87
ag88
ag65
ag66
ag199
ag89
ag90
ag200
ag103
ag192
ag91
ag193
ag101
ag194
aa(lp229
g189
ag85
ag191
ag87
ag88
ag65
ag66
ag199
ag89
ag90
ag200
ag103
ag91
ag193
ag202
ag101
ag194
aa(lp230
g189
ag85
ag191
ag87
ag88
ag65
ag66
ag89
ag90
ag200
ag103
ag192
ag91
ag193
ag101
ag194
ag92
aa(lp231
g189
ag85
ag191
ag87
ag88
ag65
ag66
ag89
ag90
ag200
ag103
ag91
ag193
ag202
ag101
ag194
ag92
aa(lp232
g189
ag85
ag191
ag88
ag65
ag66
ag196
ag89
ag90
ag200
ag103
ag192
ag91
ag193
ag101
ag194
ag153
aa(lp233
g189
ag85
ag191
ag88
ag65
ag66
ag196
ag89
ag90
ag200
ag103
ag192
ag91
ag193
ag101
ag194
ag92
aa(lp234
g189
ag85
ag191
ag88
ag65
ag66
ag196
ag90
ag116
ag103
ag192
ag91
ag101
ag194
ag153
aa(lp235
g189
ag85
ag191
ag88
ag65
ag66
ag199
ag89
ag90
ag200
ag103
ag192
ag91
ag193
ag101
ag194
ag153
aa(lp236
g189
ag85
ag191
ag88
ag65
ag66
ag199
ag90
ag116
ag103
ag192
ag91
ag101
ag194
ag153
aa(lp237
g189
ag85
ag191
ag88
ag65
ag196
ag89
ag90
ag103
ag213
ag192
ag91
ag193
ag101
ag194
ag153
aa(lp238
g189
ag85
ag191
ag88
ag65
ag196
ag89
ag90
ag103
ag213
ag192
ag91
ag193
ag101
ag194
ag92
aa(lp239
g189
ag85
ag86
ag87
ag88
ag65
ag66
ag199
ag89
ag90
ag100
ag103
ag144
ag91
ag101
ag194
aa(lp240
g189
ag85
ag86
ag87
ag88
ag65
ag66
ag199
ag89
ag90
ag100
ag103
ag91
ag202
ag101
ag194
aa(lp241
g189
ag85
ag86
ag87
ag88
ag65
ag66
ag89
ag90
ag100
ag103
ag91
ag202
ag101
ag194
ag92
aa(lp242
g189
ag85
ag86
ag88
ag65
ag66
ag196
ag89
ag90
ag100
ag103
ag144
ag91
ag101
ag194
aa(lp243
g189
ag85
ag86
ag88
ag65
ag66
ag196
ag89
ag90
ag100
ag103
ag91
ag101
ag194
ag92
aa(lp244
g189
ag85
ag86
ag88
ag65
ag66
ag196
ag90
ag100
ag116
ag103
ag144
ag91
ag101
ag194
aa(lp245
g189
ag85
ag86
ag88
ag65
ag66
ag199
ag90
ag100
ag116
ag103
ag144
ag91
ag101
ag194
aa(lp246
g189
ag85
ag86
ag88
ag65
ag196
ag89
ag90
ag100
ag103
ag144
ag94
ag91
ag101
aa(lp247
g189
ag85
ag86
ag88
ag65
ag196
ag89
ag90
ag100
ag103
ag94
ag91
ag101
ag92
aa(lp248
g189
ag85
ag215
ag221
ag65
ag66
ag199
ag89
ag90
ag100
aV4305
p249
ag101
aa(lp250
g189
ag85
ag221
ag87
ag88
ag65
ag66
ag199
ag89
ag90
ag100
ag200
ag144
ag192
ag101
ag194
aa(lp251
g189
ag85
ag221
ag88
ag65
ag66
ag196
ag89
ag90
ag100
ag200
ag144
ag249
ag192
ag101
ag194
ag153
aa(lp252
g189
ag85
ag221
ag88
ag65
ag66
ag196
ag89
ag90
ag200
ag249
ag192
ag193
ag101
ag194
ag153
aa(lp253
g189
ag85
ag221
ag88
ag65
ag66
ag196
ag90
ag100
ag144
ag117
ag249
ag192
ag101
ag194
ag153
aa(lp254
g189
ag85
ag221
ag88
ag65
ag66
ag199
ag89
ag90
ag100
ag200
ag144
ag249
ag192
ag101
ag194
ag153
aa(lp255
g189
ag85
ag221
ag88
ag65
ag66
ag199
ag89
ag90
ag200
ag249
ag192
ag193
ag101
ag194
ag153
aa(lp256
g189
ag85
ag221
ag88
ag65
ag66
ag199
ag90
ag100
ag144
ag117
ag249
ag192
ag101
ag194
ag153
aa(lp257
g189
ag85
ag221
ag88
ag65
ag196
ag89
ag90
ag144
ag213
ag249
ag192
ag101
ag194
ag153
aa(lp258
g189
ag85
ag221
ag88
ag65
ag196
ag89
ag90
ag213
ag249
ag192
ag193
ag101
ag194
ag153
aa(lp259
g189
ag85
ag221
ag88
ag65
ag196
ag90
ag144
ag117
ag213
ag249
ag192
ag101
ag194
ag153
aa(lp260
g189
ag85
ag87
ag88
ag65
ag66
ag199
ag89
ag90
ag100
ag200
ag103
ag144
ag192
ag91
ag101
ag194
aa(lp261
g189
ag85
ag87
ag88
ag65
ag66
ag199
ag89
ag90
ag100
ag200
ag103
ag91
ag202
ag101
ag194
aa(lp262
g189
ag85
ag87
ag88
ag65
ag66
ag89
ag90
ag100
ag200
ag103
ag192
ag91
ag101
ag194
ag92
aa(lp263
g189
ag85
ag87
ag88
ag65
ag66
ag89
ag90
ag100
ag200
ag103
ag91
ag202
ag101
ag194
ag92
aa(lp264
g189
ag85
ag88
ag65
ag66
ag196
ag89
ag90
ag100
ag200
ag103
ag144
ag249
ag192
ag101
ag194
ag153
aa(lp265
g189
ag85
ag88
ag65
ag66
ag196
ag89
ag90
ag100
ag200
ag103
ag144
ag192
ag91
ag101
ag194
ag153
aa(lp266
g189
ag85
ag88
ag65
ag66
ag196
ag89
ag90
ag100
ag200
ag103
ag192
ag91
ag101
ag194
ag92
aa(lp267
g189
ag85
ag88
ag65
ag66
ag196
ag89
ag90
ag200
ag103
ag249
ag192
ag193
ag101
ag194
ag153
aa(lp268
g189
ag85
ag88
ag65
ag66
ag196
ag90
ag100
ag116
ag103
ag144
ag249
ag192
ag101
ag194
ag153
aa(lp269
g189
ag85
ag88
ag65
ag66
ag196
ag90
ag100
ag116
ag103
ag144
ag192
ag91
ag101
ag194
ag153
aa(lp270
g189
ag85
ag88
ag65
ag66
ag196
ag90
ag100
ag116
ag144
ag117
ag249
ag192
ag101
ag194
ag153
aa(lp271
g189
ag85
ag88
ag65
ag66
ag196
ag90
ag100
ag116
ag144
ag117
ag192
ag91
ag101
ag194
ag153
aa(lp272
g189
ag85
ag88
ag65
ag66
ag199
ag89
ag90
ag100
ag200
ag103
ag144
ag249
ag192
ag101
ag194
ag153
aa(lp273
g189
ag85
ag88
ag65
ag66
ag199
ag89
ag90
ag100
ag200
ag103
ag144
ag192
ag91
ag101
ag194
ag153
aa(lp274
g189
ag85
ag88
ag65
ag66
ag199
ag89
ag90
ag200
ag103
ag249
ag192
ag193
ag101
ag194
ag153
aa(lp275
g189
ag85
ag88
ag65
ag66
ag199
ag90
ag100
ag116
ag103
ag144
ag249
ag192
ag101
ag194
ag153
aa(lp276
g189
ag85
ag88
ag65
ag66
ag199
ag90
ag100
ag116
ag103
ag144
ag192
ag91
ag101
ag194
ag153
aa(lp277
g189
ag85
ag88
ag65
ag66
ag199
ag90
ag100
ag116
ag144
ag117
ag249
ag192
ag101
ag194
ag153
aa(lp278
g189
ag85
ag88
ag65
ag66
ag199
ag90
ag100
ag116
ag144
ag117
ag192
ag91
ag101
ag194
ag153
aa(lp279
g189
ag85
ag88
ag65
ag196
ag89
ag90
ag103
ag144
ag213
ag249
ag192
ag101
ag194
ag153
aa(lp280
g189
ag85
ag88
ag65
ag196
ag89
ag90
ag103
ag144
ag213
ag192
ag91
ag101
ag194
ag153
aa(lp281
g189
ag85
ag88
ag65
ag196
ag89
ag90
ag103
ag213
ag249
ag192
ag193
ag101
ag194
ag153
aa(lp282
g189
ag85
ag88
ag65
ag196
ag90
ag144
ag117
ag213
ag192
ag91
ag101
ag194
ag153
aa(lp283
g189
ag99
aV2060
p284
ag86
ag65
ag100
ag144
aa(lp285
g189
ag99
ag86
ag215
ag108
ag87
ag65
ag66
ag199
ag89
ag90
ag100
aa(lp286
g189
ag99
ag86
ag108
ag87
ag88
ag65
ag66
ag199
ag89
ag90
ag100
ag144
ag194
aa(lp287
g189
ag99
ag86
ag108
ag87
ag88
ag65
ag66
ag199
ag89
ag90
ag100
ag202
ag194
aa(lp288
g189
ag99
ag86
ag88
ag65
ag66
ag115
ag199
ag90
ag100
ag144
ag101
ag194
aa(lp289
g189
ag99
ag221
ag88
ag65
ag66
ag115
ag199
ag90
ag100
ag144
ag117
ag101
ag194
aa(lp290
g189
ag99
ag221
ag65
ag66
ag115
ag199
ag90
ag100
ag144
ag117
ag119
ag101
ag194
aa(lp291
g189
ag99
ag221
ag65
ag66
ag199
ag89
ag90
ag100
ag144
ag119
ag101
ag194
aa(lp292
g189
ag284
ag64
ag65
ag100
ag144
aa(lp293
g189
ag86
ag108
ag87
ag88
ag65
ag66
ag89
ag90
ag100
ag202
ag194
ag92
aa(lp294
g189
ag86
ag108
ag88
ag65
ag89
ag90
ag100
ag144
ag94
aa(lp295
g189
ag86
ag108
ag88
ag65
ag89
ag90
ag100
ag94
ag92
aa(lp296
g189
ag86
ag88
ag65
ag66
ag196
ag115
ag90
ag100
ag116
ag144
ag101
ag194
aa(lp297
g189
ag86
ag88
ag65
ag66
ag115
ag199
ag90
ag100
ag116
ag144
ag101
ag194
aa(lp298
g189
ag221
ag88
ag65
ag66
ag196
ag115
ag90
ag100
ag144
ag117
ag249
ag192
ag101
ag194
ag153
aa(lp299
g189
ag221
ag88
ag65
ag66
ag115
ag199
ag90
ag100
ag144
ag117
ag249
ag192
ag101
ag194
ag153
aa(lp300
g189
ag221
ag88
ag65
ag196
ag115
ag90
ag144
ag117
ag213
ag249
ag192
ag101
ag194
ag153
aa(lp301
g189
ag221
aV3121
p302
ag249
aa(lp303
g189
ag221
ag65
ag66
ag115
ag199
ag90
ag100
ag144
ag117
ag249
ag192
ag119
ag101
ag194
ag153
aa(lp304
g189
ag221
ag65
ag66
ag199
ag89
ag90
ag100
ag144
ag249
ag192
ag119
ag101
ag194
ag153
aa(lp305
g189
ag221
ag65
ag115
ag90
ag144
ag117
ag213
ag249
ag192
ag119
ag101
ag194
ag153
aa(lp306
g189
ag221
ag65
ag89
ag90
ag144
ag213
ag249
ag192
ag119
ag101
ag194
ag153
aa(lp307
g189
ag64
ag65
ag66
ag115
ag90
ag100
ag116
ag144
aa(lp308
g189
ag18
ag65
ag196
ag115
ag90
ag144
ag117
ag213
ag249
ag101
aa(lp309
g189
ag18
ag65
ag115
ag90
ag144
ag117
ag213
ag249
ag119
ag101
aa(lp310
g189
ag88
ag65
ag66
ag196
ag115
ag90
ag100
ag116
ag144
ag117
ag249
ag192
ag101
ag194
ag153
aa(lp311
g189
ag88
ag65
ag66
ag115
ag199
ag90
ag100
ag116
ag144
ag117
ag249
ag192
ag101
ag194
ag153
aa(lp312
g189
ag65
ag66
ag115
ag199
ag90
ag100
ag116
ag144
ag117
ag249
ag192
ag119
ag101
ag194
ag153
aa(lp313
g15
aV139
p314
aV2023
p315
ag3
ag27
aa(lp316
g15
ag314
ag315
ag117
ag118
ag27
aa(lp317
g15
ag314
ag3
aV651
p318
ag27
aa(lp319
g15
ag314
ag117
ag118
ag318
ag27
aa(lp320
g15
ag16
ag18
ag19
ag131
ag20
ag21
aa(lp321
g15
ag315
ag113
ag124
ag116
ag117
ag118
aa(lp322
g15
ag315
ag113
ag124
ag117
ag118
ag27
aa(lp323
g15
ag315
ag124
ag3
ag27
aa(lp324
g15
ag113
ag18
ag115
ag117
ag118
ag119
ag27
ag121
aa(lp325
g15
ag113
ag124
aV475
p326
aa(lp327
g15
ag113
ag326
ag121
aa(lp328
g15
aV2056
p329
ag18
ag117
ag118
ag27
aa(lp330
g15
ag329
ag18
ag20
ag27
aa(lp331
g15
ag329
ag25
ag20
ag27
aa(lp332
g15
ag329
ag117
ag118
ag318
ag27
aa(lp333
g15
ag18
ag19
ag115
ag131
ag20
ag21
aa(lp334
g15
ag18
ag19
ag115
ag131
ag21
ag121
aa(lp335
g15
ag18
ag19
ag115
ag20
ag27
ag21
aa(lp336
g15
ag18
ag19
ag115
ag27
ag21
ag121
aa(lp337
g15
ag18
ag115
ag117
ag118
ag119
ag27
ag21
ag121
aa(lp338
g15
ag18
ag115
aV5659
p339
ag131
ag21
ag121
aa(lp340
g15
ag19
ag25
ag3
ag27
aa(lp341
g15
ag114
ag116
ag127
ag117
ag118
ag318
aa(lp342
g15
ag114
ag116
ag117
ag118
ag119
ag318
aa(lp343
g15
ag114
ag127
ag23
ag21
aa(lp344
g15
ag115
ag127
ag20
ag27
ag21
aa(lp345
g15
ag124
ag116
ag127
ag117
ag118
ag318
aa(lp346
g15
ag124
ag127
ag117
ag118
ag318
ag27
aa(lp347
g15
ag124
ag127
ag20
ag27
aa(lp348
g15
ag124
ag3
ag318
ag27
aa(lp349
g15
ag124
ag326
ag318
aa(lp350
g15
ag127
ag20
ag23
ag21
aa(lp351
g15
ag117
ag118
ag119
ag318
ag27
aa(lp352
V1239
p353
aV998
p354
aa(lp355
V1245
p356
ag30
ag32
aV5088
p357
aa(lp358
g356
ag357
aV586
p359
aa(lp360
g6
aV1510
p361
aV1659
p362
aV2149
p363
aa(lp364
g84
ag190
ag85
aV1671
p365
ag191
ag88
ag192
ag193
ag194
ag92
aa(lp366
g84
ag85
aV1632
p367
ag365
ag191
ag88
ag192
ag91
ag193
ag194
ag92
aa(lp368
g84
ag85
ag367
ag365
ag191
ag88
ag91
aV5172
p369
ag193
ag194
ag92
aa(lp370
g84
ag85
ag367
ag191
ag87
ag88
ag65
ag89
ag90
ag200
ag192
ag91
ag193
ag194
ag92
aa(lp371
g84
ag85
ag367
ag191
ag87
ag88
ag65
ag89
ag90
ag192
ag91
ag193
ag194
ag96
aa(lp372
g84
ag85
ag367
ag191
ag87
ag88
ag65
ag90
ag200
ag91
ag369
ag193
ag194
ag92
aa(lp373
g84
ag85
ag367
ag191
ag88
ag65
ag196
ag89
ag90
ag200
ag192
ag91
ag193
ag194
ag92
aa(lp374
g84
ag85
ag191
ag87
ag88
ag65
ag66
ag90
ag200
ag91
ag369
ag193
ag202
ag194
ag92
aa(lp375
g84
ag85
ag191
ag87
ag88
ag65
ag199
ag89
ag90
ag192
ag91
ag193
ag194
ag96
aa(lp376
g84
ag85
ag191
ag87
ag88
ag65
ag199
ag89
ag90
ag91
ag193
ag202
ag194
ag96
aa(lp377
g84
ag85
ag86
ag87
ag88
ag65
ag66
ag90
ag91
ag369
ag202
ag194
ag92
aa(lp378
V1274
p379
aV1325
p380
ag138
ag367
aV1748
p381
aV2928
p382
ag103
ag91
ag318
aa(lp383
g379
ag380
ag138
ag367
ag381
aV4765
p384
ag91
aa(lp385
g379
ag380
ag367
ag365
ag191
ag381
ag382
ag103
ag91
ag193
aa(lp386
g379
ag380
ag367
ag365
ag191
aV1749
p387
ag382
ag103
ag91
ag193
aa(lp388
g379
ag380
ag367
ag365
ag381
aV2807
p389
ag382
ag91
ag193
aa(lp390
g379
ag380
ag367
ag365
ag387
ag389
ag382
ag91
ag193
aa(lp391
g379
ag380
ag367
ag191
ag381
ag382
ag103
aV3885
p392
ag91
ag193
ag318
aa(lp393
g379
ag380
ag367
ag191
ag381
ag382
ag91
aV5978
p394
ag318
aa(lp395
g379
ag380
ag367
ag191
ag381
ag103
ag392
ag213
ag91
ag193
ag318
aa(lp396
g379
ag380
ag367
ag191
ag381
ag213
ag91
ag394
ag318
aa(lp397
g379
ag380
ag367
ag381
ag389
ag384
ag91
aa(lp398
g379
ag380
ag367
ag381
ag384
ag91
ag394
aa(lp399
g379
ag85
ag367
ag365
ag191
ag381
ag382
ag88
ag103
ag192
ag91
ag193
ag194
aa(lp400
g379
ag85
ag367
ag365
ag191
ag381
ag88
ag103
ag91
ag369
ag193
ag194
aa(lp401
g379
ag85
ag367
ag365
ag191
ag387
ag382
ag103
ag91
ag193
ag194
aa(lp402
g379
ag85
ag367
ag365
ag191
ag387
ag103
ag91
ag369
ag193
ag194
aa(lp403
g379
ag85
ag367
ag191
ag381
ag382
ag88
ag200
ag103
ag392
ag192
ag91
ag193
ag101
ag194
ag318
aa(lp404
g379
ag85
ag367
ag191
ag381
ag382
ag88
ag192
ag91
ag101
ag394
ag318
aa(lp405
g379
ag85
ag367
ag191
ag381
ag88
ag200
ag103
ag91
ag369
ag193
ag101
ag194
aa(lp406
g379
ag85
ag367
ag191
ag381
ag88
ag103
ag392
ag213
ag192
ag91
ag193
ag101
ag194
ag318
aa(lp407
g379
ag85
ag367
ag191
ag381
ag88
ag213
ag192
ag91
ag101
ag394
ag318
aa(lp408
g379
ag85
ag367
ag191
ag387
ag382
ag200
ag103
ag91
ag193
ag194
aa(lp409
g379
ag85
ag367
ag191
ag387
ag200
ag103
ag91
ag369
ag193
ag194
aa(lp410
g379
ag138
ag367
ag381
ag382
ag103
ag91
ag101
ag318
aa(lp411
g379
ag367
ag365
aV1685
p412
ag191
ag387
ag382
ag103
ag91
ag194
aa(lp413
g379
ag367
ag365
ag412
ag191
ag387
ag103
ag91
ag369
ag194
aa(lp414
g379
ag367
ag365
ag412
ag387
aV1916
p415
ag389
ag382
ag91
aa(lp416
g379
ag367
ag365
ag412
ag387
ag389
ag91
ag369
aa(lp417
g379
ag367
ag365
ag191
ag387
aV2841
p418
ag369
ag193
ag194
aa(lp419
g379
ag367
ag365
ag191
ag387
aV3546
p420
ag91
ag369
ag193
aa(lp421
g379
ag367
ag365
ag381
ag415
ag389
ag382
ag91
aa(lp422
g379
ag367
ag365
ag381
ag389
ag91
ag369
ag193
aa(lp423
g379
ag367
ag365
ag387
ag389
ag91
ag369
ag193
aa(lp424
g379
ag367
ag365
ag415
ag389
ag91
aV5948
p425
aa(lp426
g379
ag367
ag365
ag389
ag91
ag193
ag425
aa(lp427
g379
ag367
ag412
ag191
ag387
ag382
ag200
ag103
ag91
ag194
aa(lp428
g379
ag367
ag412
ag191
ag387
ag200
ag103
ag91
ag369
ag194
aa(lp429
g379
ag367
ag412
ag191
ag382
ag200
ag103
ag91
ag194
ag318
aa(lp430
g379
ag367
ag191
ag387
ag418
ag200
ag369
ag193
ag194
aa(lp431
g379
ag367
ag191
ag387
ag420
ag200
ag91
ag369
ag193
aa(lp432
g379
ag367
ag191
ag420
ag200
ag392
ag91
ag193
aa(lp433
g379
aV1797
p434
aa(lp435
g380
ag314
ag367
ag382
ag3
ag392
ag153
ag318
ag27
aa(lp436
g380
ag314
ag367
ag382
ag153
ag394
ag318
aa(lp437
g380
ag314
ag315
ag382
ag3
ag153
ag27
aa(lp438
g380
ag314
aV5843
p439
aa(lp440
g380
ag137
ag138
ag127
ag91
ag318
aa(lp441
g380
ag137
ag138
ag127
ag318
ag27
aa(lp442
g380
ag137
aV377
p443
aa(lp444
g380
ag138
ag367
ag381
ag382
ag103
ag91
ag153
ag318
aa(lp445
g380
ag138
ag367
ag381
ag127
ag91
ag318
aa(lp446
g380
ag138
ag367
ag382
ag103
ag3
ag153
ag318
aa(lp447
g380
ag138
ag367
ag382
ag3
ag153
ag318
ag27
aa(lp448
g380
ag138
ag367
ag127
ag318
ag27
aa(lp449
g380
ag138
ag367
ag103
ag3
ag150
ag153
ag318
aa(lp450
g380
ag138
ag367
ag103
ag150
ag91
ag153
ag318
aa(lp451
g380
ag138
ag315
ag382
ag103
ag3
ag153
aa(lp452
g380
ag138
ag315
ag382
ag3
ag153
ag27
aa(lp453
g380
ag138
ag315
ag103
ag3
ag150
ag153
aa(lp454
g380
ag367
ag191
ag381
ag382
ag103
ag392
ag91
ag193
ag153
ag318
aa(lp455
g380
ag367
ag191
ag381
ag382
ag91
ag153
ag394
ag318
aa(lp456
g380
ag367
ag191
ag381
ag103
ag392
ag213
ag91
ag193
ag153
ag318
aa(lp457
g380
ag367
ag191
ag381
ag213
ag91
ag153
ag394
ag318
aa(lp458
g380
ag367
ag381
ag127
ag392
ag91
ag318
aa(lp459
g380
ag367
ag382
ag103
ag3
ag392
ag153
ag318
aa(lp460
g380
ag367
ag127
ag392
ag318
ag27
aa(lp461
g380
ag367
ag103
ag213
ag150
ag91
ag193
ag153
ag318
aa(lp462
g380
ag315
ag382
aV3260
p463
ag103
ag3
aa(lp464
g380
ag315
ag463
ag103
ag3
ag150
aa(lp465
g380
ag315
ag463
ag443
aa(lp466
g380
ag329
ag382
ag392
ag153
ag318
ag27
aa(lp467
g380
ag382
ag463
ag103
ag3
ag318
aa(lp468
g380
ag382
ag463
ag103
ag91
ag318
aa(lp469
g380
ag463
ag103
ag3
ag150
ag318
aa(lp470
g380
ag463
ag103
ag150
ag91
ag318
aa(lp471
g380
ag19
ag3
ag27
aa(lp472
V1335
p473
ag412
aa(lp474
V1380
p475
aV1726
p476
ag115
ag121
aa(lp477
g475
ag113
ag115
aV3512
p478
aa(lp479
g475
ag113
ag115
ag121
aa(lp480
g475
aV2195
p481
aa(lp482
g475
aV4153
p483
aa(lp484
g314
ag367
ag118
ag153
ag318
ag27
aa(lp485
g314
ag315
ag382
ag117
ag153
ag27
aa(lp486
g314
ag315
ag117
ag118
ag153
ag27
aa(lp487
g314
ag382
ag117
ag392
ag153
ag318
ag27
aa(lp488
g314
ag117
ag118
ag153
ag318
ag27
aa(lp489
g137
ag138
ag139
ag118
ag91
aV5475
p490
ag318
aa(lp491
g137
ag138
ag127
ag118
ag91
ag490
ag101
ag318
aa(lp492
g137
ag138
ag127
ag118
ag101
ag318
ag27
aa(lp493
g137
ag139
ag114
ag118
ag318
aa(lp494
g137
ag139
ag443
ag118
aa(lp495
g137
ag114
ag115
ag127
ag144
ag117
ag118
ag101
aa(lp496
g137
ag114
ag127
ag144
ag117
ag118
ag101
ag318
aa(lp497
g137
ag115
ag127
ag144
ag117
ag118
ag101
ag27
aa(lp498
g137
ag115
ag118
aV5473
p499
ag21
aa(lp500
g137
ag127
ag144
ag117
ag118
ag91
ag101
ag318
aa(lp501
g137
ag127
ag144
ag117
ag118
ag101
ag318
ag27
aa(lp502
g137
ag127
ag144
ag118
ag91
ag490
ag101
ag318
aa(lp503
g190
ag85
ag365
ag191
ag88
ag103
ag192
ag193
ag194
ag92
aa(lp504
g190
ag365
aV3013
p505
ag88
ag103
ag92
aa(lp506
g190
ag505
ag88
ag196
ag103
ag94
ag92
aa(lp507
g190
ag505
ag88
ag196
ag103
ag213
ag92
aa(lp508
V1431
p509
aV1973
p510
aV972
p511
aa(lp512
g85
ag367
ag365
ag191
ag88
ag103
ag192
ag91
ag193
ag194
ag92
aa(lp513
g85
ag367
ag365
ag191
ag88
ag103
ag91
ag369
ag193
ag194
ag92
aa(lp514
g85
ag367
ag191
ag381
ag382
ag88
ag196
ag200
ag103
ag392
ag192
ag91
ag193
ag101
ag194
ag153
ag318
aa(lp515
g85
ag367
ag191
ag381
ag382
ag88
ag196
ag192
ag91
ag101
ag153
ag394
ag318
aa(lp516
g85
ag367
ag191
ag381
ag88
ag196
ag89
ag90
ag200
ag103
ag192
ag91
ag193
ag101
ag194
ag153
aa(lp517
g85
ag367
ag191
ag381
ag88
ag196
ag89
ag90
ag103
ag213
ag192
ag91
ag193
ag101
ag194
ag153
aa(lp518
g85
ag367
ag191
ag381
ag88
ag196
ag90
ag116
ag103
ag192
ag91
ag101
ag194
ag153
ag318
aa(lp519
g85
ag367
ag191
ag381
ag88
ag196
ag90
ag200
ag103
ag392
ag192
ag91
ag193
ag101
ag194
ag153
ag318
aa(lp520
g85
ag367
ag191
ag381
ag88
ag196
ag90
ag103
ag392
ag213
ag192
ag91
ag193
ag101
ag194
ag153
ag318
aa(lp521
g85
ag367
ag191
ag381
ag88
ag196
ag213
ag192
ag91
ag101
ag153
ag394
ag318
aa(lp522
g85
ag367
ag191
ag381
ag88
ag90
ag200
ag103
ag91
ag369
ag193
ag101
ag194
aa(lp523
g85
ag367
ag191
ag387
ag382
ag200
ag103
ag91
ag490
ag194
aa(lp524
g85
ag367
ag191
ag387
ag200
ag103
ag91
ag369
ag490
ag194
aa(lp525
g85
ag367
ag191
ag382
ag88
ag65
ag196
ag200
ag103
ag392
ag192
ag91
ag193
ag101
ag194
ag153
ag318
aa(lp526
g85
ag367
ag191
ag382
ag88
ag65
ag200
ag103
ag91
ag490
ag101
ag194
ag153
ag318
aa(lp527
g85
ag367
ag191
ag87
ag88
ag65
ag89
ag90
ag200
ag103
ag192
ag91
ag193
ag101
ag194
ag92
aa(lp528
g85
ag367
ag191
ag87
ag88
ag65
ag89
ag90
ag192
ag91
ag193
ag101
ag194
ag96
aa(lp529
g85
ag367
ag191
ag87
ag88
ag65
ag90
ag200
ag103
ag91
ag369
ag193
ag101
ag194
ag92
aa(lp530
g85
ag367
ag191
ag88
ag65
ag196
ag89
ag90
ag200
ag103
ag192
ag91
ag193
ag101
ag194
ag153
aa(lp531
g85
ag367
ag191
ag88
ag65
ag196
ag89
ag90
ag200
ag103
ag192
ag91
ag193
ag101
ag194
ag92
aa(lp532
g85
ag367
ag191
ag88
ag65
ag196
ag89
ag90
ag103
ag213
ag192
ag91
ag193
ag101
ag194
ag153
aa(lp533
g85
ag367
ag191
ag88
ag65
ag196
ag89
ag90
ag103
ag213
ag192
ag91
ag193
ag101
ag194
ag92
aa(lp534
g85
ag367
ag191
ag88
ag65
ag196
ag90
ag116
ag103
ag192
ag91
ag101
ag194
ag153
ag318
aa(lp535
g85
ag367
ag191
ag88
ag65
ag196
ag90
ag200
ag103
ag392
ag192
ag91
ag193
ag101
ag194
ag153
ag318
aa(lp536
g85
ag367
ag191
ag88
ag65
ag196
ag90
ag200
ag103
ag192
ag91
ag193
ag101
ag194
ag92
ag318
aa(lp537
g85
ag367
ag191
ag88
ag65
ag196
ag90
ag103
ag392
ag213
ag192
ag91
ag193
ag101
ag194
ag153
ag318
aa(lp538
g85
ag367
ag191
ag88
ag65
ag196
ag90
ag103
ag213
ag192
ag91
ag193
ag101
ag194
ag92
ag318
aa(lp539
g85
ag367
ag191
ag88
ag65
ag90
ag116
ag103
ag91
ag490
ag101
ag194
ag153
ag318
aa(lp540
g85
ag367
ag191
ag88
ag65
ag90
ag200
ag103
ag91
ag369
ag490
ag101
ag194
ag92
aa(lp541
g85
ag367
ag191
ag88
ag65
ag90
ag200
ag103
ag91
ag490
ag101
ag194
ag153
ag318
aa(lp542
g85
ag367
ag191
ag88
ag65
ag90
ag200
ag103
ag91
ag490
ag101
ag194
ag92
ag318
aa(lp543
g85
ag367
ag382
ag88
ag65
ag196
ag478
ag144
ag101
ag194
ag153
aa(lp544
g85
ag367
ag382
ag88
ag65
ag196
ag200
ag103
ag144
ag392
ag192
ag91
ag101
ag194
ag153
ag318
aa(lp545
g85
ag367
ag382
ag88
ag65
ag200
ag103
ag144
ag91
ag490
ag101
ag194
ag153
ag318
aa(lp546
g85
ag367
ag87
ag88
ag65
ag89
ag90
ag200
ag103
ag144
ag192
ag91
ag101
ag194
aa(lp547
g85
ag367
ag88
ag65
ag196
ag478
ag90
ag116
ag144
ag101
ag194
ag153
aa(lp548
g85
ag367
ag88
ag65
ag196
ag478
ag90
ag144
ag213
ag101
ag194
ag153
aa(lp549
g85
ag367
ag88
ag65
ag196
ag89
ag90
ag200
ag103
ag144
ag192
ag91
ag101
ag194
ag153
aa(lp550
g85
ag367
ag88
ag65
ag196
ag89
ag90
ag103
ag144
ag213
ag192
ag91
ag101
ag194
ag153
aa(lp551
g85
ag367
ag88
ag65
ag196
ag90
ag116
ag103
ag144
ag150
ag192
ag91
ag101
ag194
ag153
ag318
aa(lp552
g85
ag367
ag88
ag65
ag196
ag90
ag200
ag103
ag144
ag392
ag192
ag91
ag101
ag194
ag153
ag318
aa(lp553
g85
ag367
ag88
ag65
ag196
ag90
ag103
ag144
ag392
ag213
ag192
ag91
ag101
ag194
ag153
ag318
aa(lp554
g85
ag367
ag88
ag65
ag196
ag90
ag103
ag144
ag213
ag150
ag192
ag91
ag101
ag194
ag153
ag318
aa(lp555
g85
ag367
ag88
ag65
ag196
ag90
ag103
ag213
ag150
ag192
ag91
ag193
ag101
ag194
ag153
ag318
aa(lp556
g85
ag367
ag88
ag65
ag196
ag90
ag103
ag213
ag150
ag192
ag91
ag193
ag101
ag194
ag92
ag318
aa(lp557
g85
ag367
ag88
ag65
ag90
ag116
ag103
ag144
ag150
ag91
ag490
ag101
ag194
ag153
ag318
aa(lp558
g85
ag367
ag88
ag65
ag90
ag200
ag103
ag144
ag91
ag490
ag101
ag194
ag153
ag318
aa(lp559
g85
ag367
ag88
ag65
ag90
ag103
ag150
ag91
ag369
ag193
ag101
ag194
ag92
aa(lp560
g85
ag367
ag88
ag65
ag90
ag103
ag150
ag91
ag369
ag490
ag101
ag194
ag92
aa(lp561
g85
ag367
ag88
ag65
ag90
ag103
ag150
ag91
ag490
ag101
ag194
ag92
ag318
aa(lp562
g85
ag191
ag381
ag221
ag88
ag66
ag196
ag89
ag90
ag200
ag192
ag193
ag101
ag194
ag153
aa(lp563
g85
ag191
ag381
ag221
ag88
ag66
ag196
ag90
ag200
ag192
ag193
ag101
ag194
ag153
ag318
aa(lp564
g85
ag191
ag381
ag221
ag88
ag196
ag89
ag90
ag213
ag192
ag193
ag101
ag194
ag153
aa(lp565
g85
ag191
ag381
ag221
ag88
ag196
ag90
ag200
ag392
ag192
ag193
ag101
ag194
ag153
ag318
aa(lp566
g85
ag191
ag381
ag221
ag88
ag196
ag90
ag392
ag213
ag192
ag193
ag101
ag194
ag153
ag318
aa(lp567
g85
ag191
ag381
ag88
ag66
ag196
ag89
ag90
ag200
ag103
ag192
ag91
ag193
ag101
ag194
ag153
aa(lp568
g85
ag191
ag381
ag88
ag66
ag196
ag90
ag116
ag103
ag192
ag91
ag101
ag194
ag153
ag318
aa(lp569
g85
ag191
ag381
ag88
ag66
ag196
ag90
ag200
ag103
ag192
ag91
ag193
ag101
ag194
ag153
ag318
aa(lp570
g85
ag191
ag381
ag88
ag66
ag90
ag200
ag103
ag91
ag369
ag193
ag101
ag194
aa(lp571
g85
ag191
ag221
ag88
ag65
ag66
ag196
ag90
ag200
ag192
ag193
ag101
ag194
ag153
ag318
aa(lp572
g85
ag191
ag221
ag88
ag65
ag196
ag90
ag200
ag392
ag192
ag193
ag101
ag194
ag153
ag318
aa(lp573
g85
ag191
ag221
ag88
ag65
ag196
ag90
ag392
ag213
ag192
ag193
ag101
ag194
ag153
ag318
aa(lp574
g85
ag191
ag87
ag88
ag65
ag66
ag90
ag200
ag103
ag91
ag369
ag193
ag202
ag101
ag194
ag92
aa(lp575
g85
ag191
ag87
ag88
ag65
ag199
ag89
ag90
ag192
ag91
ag193
ag101
ag194
ag96
aa(lp576
g85
ag191
ag87
ag88
ag65
ag199
ag89
ag90
ag91
ag193
ag202
ag101
ag194
ag96
aa(lp577
g85
ag191
ag88
ag65
ag66
ag196
ag90
ag116
ag103
ag192
ag91
ag101
ag194
ag153
ag318
aa(lp578
g85
ag191
ag88
ag65
ag66
ag196
ag90
ag200
ag103
ag192
ag91
ag193
ag101
ag194
ag153
ag318
aa(lp579
g85
ag191
ag88
ag65
ag66
ag196
ag90
ag200
ag103
ag192
ag91
ag193
ag101
ag194
ag92
ag318
aa(lp580
g85
ag191
ag88
ag65
ag66
ag199
ag90
ag116
ag103
ag91
ag490
ag101
ag194
ag153
aa(lp581
g85
ag191
ag88
ag65
ag66
ag199
ag90
ag200
ag103
ag91
ag490
ag202
ag101
ag194
aa(lp582
g85
ag191
ag88
ag65
ag66
ag199
ag90
ag200
ag103
ag91
ag490
ag101
ag194
ag153
aa(lp583
g85
ag191
ag88
ag65
ag66
ag90
ag116
ag103
ag91
ag490
ag101
ag194
ag153
ag318
aa(lp584
g85
ag191
ag88
ag65
ag66
ag90
ag200
ag103
ag91
ag369
ag490
ag202
ag101
ag194
ag92
aa(lp585
g85
ag191
ag88
ag65
ag66
ag90
ag200
ag103
ag91
ag490
ag101
ag194
ag153
ag318
aa(lp586
g85
ag191
ag88
ag65
ag66
ag90
ag200
ag103
ag91
ag490
ag101
ag194
ag92
ag318
aa(lp587
g85
ag381
ag221
ag88
ag66
ag196
ag89
ag90
ag200
ag249
ag192
ag193
ag101
ag194
ag153
aa(lp588
g85
ag381
ag221
ag88
ag66
ag196
ag90
ag200
ag249
ag192
ag193
ag101
ag194
ag153
ag318
aa(lp589
g85
ag381
ag221
ag88
ag196
ag89
ag90
ag213
ag249
ag192
ag193
ag101
ag194
ag153
aa(lp590
g85
ag381
ag221
ag88
ag196
ag90
ag200
ag392
ag249
ag192
ag193
ag101
ag194
ag153
ag318
aa(lp591
g85
ag381
ag221
ag88
ag196
ag90
ag392
ag213
ag249
ag192
ag193
ag101
ag194
ag153
ag318
aa(lp592
g85
ag381
ag88
ag66
ag196
ag89
ag90
ag200
ag103
ag249
ag192
ag193
ag101
ag194
ag153
aa(lp593
g85
ag381
ag88
ag66
ag196
ag90
ag116
ag103
ag249
ag192
ag101
ag194
ag153
ag318
aa(lp594
g85
ag381
ag88
ag66
ag196
ag90
ag200
ag103
ag249
ag192
ag193
ag101
ag194
ag153
ag318
aa(lp595
g85
ag381
ag88
ag196
ag89
ag90
ag103
ag213
ag249
ag192
ag193
ag101
ag194
ag153
aa(lp596
g85
ag381
ag88
ag196
ag90
ag200
ag103
ag392
ag249
ag192
ag193
ag101
ag194
ag153
ag318
aa(lp597
g85
ag381
ag88
ag196
ag90
ag103
ag392
ag213
ag249
ag192
ag193
ag101
ag194
ag153
ag318
aa(lp598
g85
ag86
ag87
ag88
ag65
ag66
ag90
ag103
ag91
ag369
ag202
ag101
ag194
ag92
aa(lp599
g85
ag86
ag88
ag65
ag66
ag199
ag90
ag100
ag116
ag103
ag144
ag91
ag490
ag101
ag194
aa(lp600
g85
ag86
ag88
ag65
ag66
ag199
ag90
ag100
ag103
ag91
ag490
ag202
ag101
ag194
aa(lp601
g85
ag86
ag88
ag65
ag66
ag90
ag100
ag103
ag91
ag490
ag202
ag101
ag194
ag92
aa(lp602
g85
ag86
ag88
ag65
ag66
ag90
ag103
ag91
ag369
ag490
ag202
ag101
ag194
ag92
aa(lp603
g85
ag86
ag88
ag65
ag196
ag90
ag100
ag116
ag103
ag144
ag150
ag91
ag101
ag194
aa(lp604
g85
ag86
ag88
ag65
ag196
ag90
ag100
ag103
ag144
ag94
ag150
ag91
ag101
aa(lp605
g85
ag86
ag88
ag65
ag196
ag90
ag100
ag103
ag94
ag150
ag91
ag101
ag92
aa(lp606
g85
ag86
ag88
ag65
ag196
ag90
ag100
ag103
ag150
ag91
ag101
ag194
ag92
aa(lp607
g85
ag86
ag88
ag65
ag90
ag100
ag116
ag103
ag144
ag150
ag91
ag490
ag101
ag194
aa(lp608
g85
ag86
ag88
ag65
ag90
ag100
ag103
ag150
ag91
ag490
ag101
ag194
ag92
aa(lp609
g85
ag86
ag88
ag65
ag90
ag103
ag150
ag91
ag369
ag490
ag101
ag194
ag92
aa(lp610
g85
ag221
ag88
ag65
ag66
ag196
ag90
ag200
ag144
ag249
ag192
ag101
ag194
ag153
ag318
aa(lp611
g85
ag221
ag88
ag65
ag66
ag196
ag90
ag200
ag249
ag192
ag193
ag101
ag194
ag153
ag318
aa(lp612
g85
ag221
ag88
ag65
ag66
ag196
ag90
ag144
ag117
ag249
ag192
ag101
ag194
ag153
ag318
aa(lp613
g85
ag221
ag88
ag65
ag196
ag90
ag200
ag144
ag392
ag249
ag192
ag101
ag194
ag153
ag318
aa(lp614
g85
ag221
ag88
ag65
ag196
ag90
ag200
ag392
ag249
ag192
ag193
ag101
ag194
ag153
ag318
aa(lp615
g85
ag221
ag88
ag65
ag196
ag90
ag144
ag117
ag392
ag213
ag249
ag192
ag101
ag194
ag153
ag318
aa(lp616
g85
ag221
ag88
ag65
ag196
ag90
ag392
ag213
ag249
ag192
ag193
ag101
ag194
ag153
ag318
aa(lp617
g85
ag382
ag88
ag65
ag196
ag478
ag144
ag117
ag101
ag194
ag153
aa(lp618
g85
ag382
ag88
ag65
ag196
ag144
ag117
ag392
ag192
ag91
ag101
ag194
ag153
ag318
aa(lp619
g85
ag88
ag65
ag66
ag196
ag90
ag116
ag103
ag144
ag249
ag192
ag101
ag194
ag153
ag318
aa(lp620
g85
ag88
ag65
ag66
ag196
ag90
ag116
ag103
ag144
ag192
ag91
ag101
ag194
ag153
ag318
aa(lp621
g85
ag88
ag65
ag66
ag196
ag90
ag116
ag144
ag117
ag249
ag192
ag101
ag194
ag153
ag318
aa(lp622
g85
ag88
ag65
ag66
ag196
ag90
ag116
ag144
ag117
ag192
ag91
ag101
ag194
ag153
ag318
aa(lp623
g85
ag88
ag65
ag66
ag196
ag90
ag200
ag103
ag144
ag249
ag192
ag101
ag194
ag153
ag318
aa(lp624
g85
ag88
ag65
ag66
ag196
ag90
ag200
ag103
ag144
ag192
ag91
ag101
ag194
ag153
ag318
aa(lp625
g85
ag88
ag65
ag66
ag196
ag90
ag200
ag103
ag249
ag192
ag193
ag101
ag194
ag153
ag318
aa(lp626
g85
ag88
ag65
ag66
ag199
ag90
ag100
ag116
ag103
ag144
ag91
ag490
ag101
ag194
ag153
aa(lp627
g85
ag88
ag65
ag66
ag199
ag90
ag100
ag200
ag103
ag144
ag91
ag490
ag101
ag194
ag153
aa(lp628
g85
ag88
ag65
ag66
ag199
ag90
ag100
ag200
ag103
ag91
ag490
ag202
ag101
ag194
aa(lp629
g85
ag88
ag65
ag66
ag90
ag100
ag200
ag103
ag91
ag490
ag202
ag101
ag194
ag92
aa(lp630
g85
ag88
ag65
ag66
ag90
ag116
ag103
ag144
ag91
ag490
ag101
ag194
ag153
ag318
aa(lp631
g85
ag88
ag65
ag66
ag90
ag200
ag103
ag144
ag91
ag490
ag101
ag194
ag153
ag318
aa(lp632
g85
ag88
ag65
ag196
ag478
ag90
ag100
ag116
ag144
ag117
ag101
ag194
ag153
aa(lp633
g85
ag88
ag65
ag196
ag478
ag90
ag144
ag117
ag213
ag101
ag194
ag153
aa(lp634
g85
ag88
ag65
ag196
ag90
ag100
ag116
ag103
ag144
ag150
ag192
ag91
ag101
ag194
ag153
aa(lp635
g85
ag88
ag65
ag196
ag90
ag100
ag103
ag150
ag192
ag91
ag101
ag194
ag92
aa(lp636
g85
ag88
ag65
ag196
ag90
ag200
ag103
ag144
ag392
ag249
ag192
ag101
ag194
ag153
ag318
aa(lp637
g85
ag88
ag65
ag196
ag90
ag200
ag103
ag392
ag249
ag192
ag193
ag101
ag194
ag153
ag318
aa(lp638
g85
ag88
ag65
ag196
ag90
ag103
ag144
ag392
ag213
ag249
ag192
ag101
ag194
ag153
ag318
aa(lp639
g85
ag88
ag65
ag196
ag90
ag103
ag392
ag213
ag249
ag192
ag193
ag101
ag194
ag153
ag318
aa(lp640
g85
ag88
ag65
ag196
ag90
ag144
ag117
ag392
ag213
ag192
ag91
ag101
ag194
ag153
ag318
aa(lp641
g85
ag88
ag65
ag90
ag100
ag116
ag103
ag144
ag150
ag91
ag490
ag101
ag194
ag153
aa(lp642
g61
ag315
aa(lp643
g61
ag481
aa(lp644
g361
ag362
ag363
ag511
aa(lp645
g361
aV1750
p646
ag511
aa(lp647
g361
aV2821
p648
ag511
aa(lp649
g138
ag367
ag381
ag382
ag196
ag103
ag91
ag101
ag153
ag318
aa(lp650
g138
ag367
ag381
ag196
ag90
ag103
ag91
ag101
ag153
ag318
aa(lp651
g138
ag367
ag381
ag90
ag118
ag91
ag101
ag153
ag318
aa(lp652
g138
ag367
ag381
ag127
ag118
ag91
ag101
ag318
aa(lp653
g138
ag367
aV2670
p654
ag103
ag91
ag490
ag318
aa(lp655
g138
ag367
ag382
ag65
ag196
ag103
ag91
ag101
ag153
ag318
aa(lp656
g138
ag367
ag382
ag65
ag103
ag91
ag490
ag101
ag153
ag318
aa(lp657
g138
ag367
ag382
ag196
ag103
ag3
ag101
ag153
ag318
aa(lp658
g138
ag367
ag382
ag3
ag101
ag153
ag318
ag27
aa(lp659
g138
ag367
ag505
ag196
ag103
ag91
ag92
aa(lp660
g138
ag367
ag65
ag196
ag90
ag103
ag150
ag91
ag101
ag153
ag318
aa(lp661
g138
ag367
ag65
ag196
ag90
ag103
ag150
ag91
ag101
ag92
ag318
aa(lp662
g138
ag367
ag65
ag90
ag103
ag150
ag91
ag490
ag101
ag153
ag318
aa(lp663
g138
ag367
ag65
ag90
ag103
ag150
ag91
ag490
ag101
ag92
ag318
aa(lp664
g138
ag367
ag65
ag90
ag150
ag118
ag91
ag490
ag101
ag153
ag318
aa(lp665
g138
ag367
ag65
ag127
ag118
ag91
ag490
ag101
ag318
aa(lp666
g138
ag367
ag196
ag103
ag3
ag150
ag101
ag153
ag318
aa(lp667
g138
ag367
ag127
ag118
ag101
ag318
ag27
aa(lp668
g138
ag367
ag156
ag91
aa(lp669
g138
ag367
ag118
ag101
ag153
ag318
ag27
aa(lp670
g138
aV175
p671
ag382
ag65
ag91
ag490
aa(lp672
g138
ag315
ag382
ag65
ag103
ag490
ag153
aa(lp673
g138
ag315
ag65
ag124
ag150
ag118
ag490
ag153
aa(lp674
g138
ag315
ag65
ag103
ag150
ag490
ag153
aa(lp675
g138
ag315
ag124
ag3
ag150
ag153
aa(lp676
g138
ag315
ag124
ag3
ag153
ag27
aa(lp677
g138
ag315
ag124
ag118
ag153
ag27
aa(lp678
g138
ag139
ag150
ag118
ag91
ag490
ag318
aa(lp679
g138
ag65
ag124
ag90
ag150
ag118
ag490
ag101
ag153
ag318
aa(lp680
g138
ag65
ag124
ag127
ag118
ag490
ag101
ag318
aa(lp681
g138
ag124
ag127
ag118
ag101
ag318
ag27
aa(lp682
g138
ag124
ag3
ag150
ag101
ag153
ag318
aa(lp683
g138
ag124
ag3
ag101
ag153
ag318
ag27
aa(lp684
g138
ag124
ag118
ag101
ag153
ag318
ag27
aa(lp685
V1593
p686
aV1802
p687
aa(lp688
V1601
p689
ag476
aV2445
p690
ag115
ag117
ag119
ag121
aa(lp691
g689
ag178
ag115
ag117
aa(lp692
g689
aV4242
p693
ag121
aa(lp694
g367
ag365
ag191
ag420
ag91
ag369
ag193
ag92
aa(lp695
g367
ag365
ag505
ag88
ag103
ag91
ag92
aa(lp696
g367
ag412
ag191
ag387
ag382
ag200
ag103
ag91
ag490
ag194
aa(lp697
g367
ag412
ag191
ag387
ag200
ag103
ag91
ag369
ag490
ag194
aa(lp698
g367
ag412
ag191
ag382
ag65
ag200
ag103
ag91
ag490
ag194
ag318
aa(lp699
g367
ag412
ag191
ag65
ag200
ag103
ag91
ag369
ag490
ag194
aa(lp700
g367
ag412
ag654
ag389
ag91
aa(lp701
g367
ag412
ag654
ag103
ag91
ag490
ag318
aa(lp702
g367
ag191
ag387
ag420
ag200
ag91
ag369
ag490
aa(lp703
g367
ag191
ag418
ag87
ag200
ag369
ag193
ag194
aa(lp704
g367
ag191
ag420
ag200
ag392
ag91
ag193
ag153
aa(lp705
g367
ag191
ag420
ag200
ag91
ag369
ag193
ag92
aa(lp706
g367
ag191
ag420
ag200
ag91
ag369
ag490
ag92
aa(lp707
g367
ag191
ag420
ag200
ag91
ag490
ag153
aa(lp708
g367
ag381
ag88
ag90
ag116
ag118
ag91
ag101
ag194
ag153
ag318
aa(lp709
g367
ag381
ag116
ag127
ag118
ag91
ag101
ag194
ag318
aa(lp710
g367
ag381
ag200
ag127
ag392
ag91
ag101
ag194
ag318
aa(lp711
g367
ag382
ag196
ag103
ag144
ag3
ag392
ag101
ag153
ag318
aa(lp712
g367
ag382
ag478
ag144
ag101
ag153
ag27
aa(lp713
g367
ag382
ag144
ag3
ag392
ag101
ag153
ag318
ag27
aa(lp714
g367
ag505
ag88
ag196
ag478
ag213
aa(lp715
g367
ag505
ag88
ag196
ag103
ag213
ag91
ag92
aa(lp716
g367
ag88
ag65
ag478
ag90
ag116
ag144
ag118
ag101
ag194
ag153
aa(lp717
g367
ag88
ag65
ag90
ag116
ag144
ag150
ag118
ag91
ag490
ag101
ag194
ag153
ag318
aa(lp718
g367
ag65
ag116
ag127
ag144
ag118
ag91
ag490
ag101
ag194
ag318
aa(lp719
g367
ag65
ag200
ag127
ag144
ag392
ag91
ag101
ag194
ag318
aa(lp720
g367
ag65
ag200
ag127
ag144
ag91
ag490
ag101
ag194
ag318
aa(lp721
g367
ag196
ag103
ag144
ag3
ag150
ag101
ag153
ag318
aa(lp722
g367
ag478
ag144
ag118
ag101
ag153
ag27
aa(lp723
g367
ag127
ag144
ag392
ag101
ag318
ag27
aa(lp724
g367
ag127
ag144
ag118
ag101
ag318
ag27
aa(lp725
g367
ag144
ag118
ag101
ag153
ag318
ag27
aa(lp726
g362
aV1720
p727
ag363
ag511
aa(lp728
g362
ag727
aV596
p729
ag511
aa(lp730
g30
ag31
aV3173
p731
aa(lp732
g99
ag284
ag86
ag178
ag65
aa(lp733
g99
ag86
ag108
ag65
ag66
ag199
ag100
ag144
aV457
p734
aa(lp735
g99
ag86
ag178
ag65
ag115
aa(lp736
g99
ag86
ag178
ag65
ag734
aa(lp737
g99
ag86
ag88
ag65
ag115
ag90
ag100
ag144
ag118
ag101
ag194
aa(lp738
g99
ag86
ag65
ag100
ag144
ag734
ag118
aa(lp739
g99
ag178
ag65
ag115
ag117
aa(lp740
g99
ag178
ag65
ag117
ag734
aa(lp741
g99
ag88
ag65
ag115
ag90
ag100
ag144
ag117
ag118
ag101
ag194
aa(lp742
g99
ag65
ag66
ag199
ag100
ag144
ag117
ag734
aa(lp743
g99
ag65
ag115
ag90
ag100
ag144
ag117
ag118
ag119
ag101
ag194
aa(lp744
g99
ag65
ag100
ag144
ag117
ag734
ag118
aa(lp745
g412
ag671
ag382
ag65
ag91
ag490
aa(lp746
g412
ag671
ag65
ag490
aV587
p747
aa(lp748
g412
ag65
ag200
ag490
ag747
aa(lp749
V1687
p750
aV2085
p751
aa(lp752
g750
ag108
ag92
aa(lp753
g750
ag103
ag92
aa(lp754
g191
ag418
ag87
ag199
ag200
ag193
ag202
ag194
aa(lp755
g191
ag418
ag87
ag200
ag369
ag193
ag202
ag194
aa(lp756
g159
ag113
ag65
ag124
ag150
aa(lp757
g159
ag19
ag121
aa(lp758
g727
aV672
p759
aa(lp760
g476
ag41
ag690
ag221
ag115
ag213
aV4488
p761
aa(lp762
g476
ag41
ag221
ag115
ag213
ag761
ag192
ag101
ag153
aa(lp763
g476
ag690
ag172
ag114
ag115
ag117
ag119
ag121
aa(lp764
g476
ag690
ag221
ag115
ag117
ag213
ag761
aa(lp765
g476
ag690
ag221
ag115
ag117
ag213
ag119
aa(lp766
g476
ag690
ag114
ag115
ag117
ag761
aa(lp767
g476
ag221
ag115
ag90
ag117
ag213
ag192
ag119
ag101
ag153
aa(lp768
g476
ag221
ag115
ag117
ag213
ag761
ag192
ag101
ag153
aa(lp769
g476
ag114
ag115
ag117
ag761
ag101
ag153
aa(lp770
g476
ag114
ag115
ag117
ag119
ag101
ag153
aa(lp771
g476
ag114
ag115
ag117
ag119
ag153
ag121
aa(lp772
V1735
p773
aV813
p774
aa(lp775
g381
aV1984
p776
ag118
ag101
ag318
aa(lp777
g671
ag86
ag65
ag91
ag490
aa(lp778
g646
ag510
ag511
aa(lp779
g646
aV703
p780
ag511
aa(lp781
g434
ag687
aa(lp782
g434
aV3474
p783
aa(lp784
g687
ag329
aa(lp785
g71
aV2615
p786
aa(lp787
g71
aV2988
p788
aV3332
p789
ag72
aV4067
p790
ag73
ag74
aa(lp791
V1876
p792
aV492
p793
aV5965
p794
aa(lp795
V1932
p796
aV845
p797
aa(lp798
g510
ag363
ag511
aa(lp799
g510
ag648
ag511
aa(lp800
g776
ag114
ag115
ag117
ag118
ag101
aa(lp801
g776
ag114
ag117
ag118
ag101
ag318
aa(lp802
g315
ag113
ag65
ag124
ag478
ag116
ag144
ag117
ag118
ag153
aa(lp803
g315
ag113
ag65
ag124
ag116
ag144
ag150
ag118
ag153
aa(lp804
g315
ag113
ag65
ag478
ag100
ag116
ag144
ag117
ag118
ag153
aa(lp805
g315
ag113
ag65
ag100
ag116
ag144
ag150
ag118
ag153
aa(lp806
g315
ag113
ag124
ag478
ag144
ag117
ag118
ag153
ag27
aa(lp807
g315
aV2100
p808
ag103
ag150
aa(lp809
g315
ag808
ag150
aV4750
p810
aa(lp811
g315
ag178
ag65
ag116
ag117
aa(lp812
g315
ag178
ag65
ag117
ag734
aa(lp813
g315
ag382
ag463
ag103
ag144
ag3
aa(lp814
g315
ag382
ag463
ag103
ag144
ag490
aa(lp815
g315
ag382
ag65
ag478
ag144
ag117
ag153
aa(lp816
g315
ag382
ag65
ag103
ag144
ag490
ag153
aa(lp817
g315
ag382
ag478
ag144
ag117
ag153
ag27
aa(lp818
g315
ag382
ag103
ag144
ag3
ag153
aa(lp819
g315
ag382
ag144
ag3
ag153
ag27
aa(lp820
g315
ag463
ag116
ag103
ag144
ag150
ag490
aa(lp821
g315
ag463
ag116
ag144
ag150
ag118
ag490
aa(lp822
g315
ag463
ag103
ag144
ag3
ag150
aa(lp823
g315
ag463
ag144
ag734
ag118
ag490
aa(lp824
g315
ag463
ag443
ag118
aa(lp825
g315
ag65
ag124
ag116
ag144
ag150
ag118
ag490
ag153
aa(lp826
g315
ag65
ag100
ag116
ag103
ag144
ag150
ag490
ag153
aa(lp827
g315
ag65
ag100
ag116
ag144
ag117
aV4026
p828
ag118
aa(lp829
g315
ag65
ag100
ag116
ag144
ag828
ag150
ag118
ag490
aa(lp830
g315
ag65
ag100
ag116
ag144
ag150
ag118
ag490
ag153
aa(lp831
g315
ag65
ag100
ag144
ag117
ag734
ag118
aa(lp832
g315
ag65
ag100
ag144
ag734
ag118
ag490
aa(lp833
g315
ag124
ag144
ag3
ag150
ag153
aa(lp834
g315
ag124
ag144
ag3
ag153
ag27
aa(lp835
g315
ag116
ag150
ag810
ag490
aa(lp836
g315
ag103
ag144
ag3
ag150
ag153
aa(lp837
g315
ag3
ag150
ag810
aa(lp838
g113
ag18
ag65
ag115
ag478
ag90
ag144
ag117
ag162
ag118
ag101
aa(lp839
g113
ag18
ag65
ag115
ag90
ag144
ag117
ag162
ag118
ag119
ag101
aa(lp840
g113
ag18
ag115
ag478
ag144
ag117
ag118
ag101
ag27
aa(lp841
g113
ag18
ag115
ag144
ag117
ag118
ag119
ag101
ag27
aa(lp842
g113
ag18
ag115
ag144
ag117
ag118
ag119
ag27
ag121
aa(lp843
g113
ag88
ag65
ag115
ag478
ag90
ag100
ag116
ag144
ag117
ag162
ag118
ag101
aa(lp844
g113
ag88
ag65
ag115
ag478
ag90
ag100
ag116
ag144
ag117
ag118
ag101
ag194
ag153
aa(lp845
g113
ag88
ag65
ag90
ag100
ag116
ag144
ag150
ag162
ag118
ag101
aa(lp846
g113
ag88
ag65
ag90
ag100
ag116
ag144
ag150
ag118
ag101
ag194
ag153
aa(lp847
g113
ag65
ag115
ag90
ag100
ag116
ag144
ag117
ag162
ag118
ag119
ag101
aa(lp848
g113
ag65
ag115
ag90
ag100
ag116
ag144
ag117
ag118
ag119
ag101
ag194
ag153
aa(lp849
g113
ag65
ag124
ag478
ag90
ag116
ag144
ag117
ag162
ag118
ag101
aa(lp850
g113
ag65
ag124
ag478
ag90
ag116
ag144
ag117
ag118
ag101
ag153
aa(lp851
g113
ag65
ag124
ag90
ag116
ag144
ag150
ag162
ag118
ag101
aa(lp852
g113
ag65
ag124
ag90
ag116
ag144
ag150
ag118
ag101
ag153
aa(lp853
g113
ag114
ag115
ag116
ag144
ag117
ag162
ag118
ag119
ag101
aa(lp854
g113
ag114
ag115
ag116
ag144
ag117
ag118
ag119
ag101
ag153
aa(lp855
g113
ag115
ag478
ag144
ag117
ag118
ag101
ag153
ag27
aa(lp856
g113
ag115
ag100
ag144
ag117
ag118
ag119
ag153
ag121
aa(lp857
g113
ag115
ag144
ag117
ag118
ag119
ag101
ag153
ag27
aa(lp858
g113
ag124
ag478
ag144
ag117
ag118
ag101
ag153
ag27
aa(lp859
g329
ag382
ag25
ag27
aa(lp860
g329
ag382
ag117
ag392
ag153
ag318
ag27
aa(lp861
g329
ag117
ag118
ag153
ag318
ag27
aa(lp862
g284
ag178
ag64
ag65
aa(lp863
g41
ag221
ag196
ag115
ag392
ag213
ag249
ag192
ag101
ag153
aa(lp864
g41
ag221
ag196
ag392
ag213
ag249
ag192
ag101
ag153
ag318
aa(lp865
g41
ag221
ag115
ag213
ag249
ag761
ag192
ag101
ag153
aa(lp866
g41
ag221
ag213
ag249
ag761
ag192
ag101
ag153
ag318
aa(lp867
g41
ag18
ag19
ag115
ag27
aa(lp868
g41
ag18
ag196
ag115
ag213
ag249
ag101
aa(lp869
g41
ag18
ag115
ag101
ag27
aa(lp870
g41
ag196
ag213
ag192
ag101
ag153
ag394
ag318
aa(lp871
g41
ag115
ag392
ag101
ag153
ag27
aa(lp872
g41
ag392
ag101
ag153
ag318
ag27
aa(lp873
g41
ag213
ag326
ag318
aa(lp874
g808
ag86
ag103
ag94
ag150
ag92
aa(lp875
g808
aV4785
p876
aa(lp877
V2129
p878
ag761
aa(lp879
g32
aV5695
p880
aa(lp881
g481
aV890
p882
aa(lp883
V2196
p884
aV2739
p885
aa(lp886
V2208
p887
ag66
ag199
ag202
aa(lp888
V2325
p889
ag78
aa(lp890
g86
ag108
ag88
ag65
ag66
ag199
ag90
ag100
ag144
ag490
ag194
aa(lp891
g86
ag108
ag88
ag65
ag66
ag199
ag90
ag100
ag490
ag202
ag194
aa(lp892
g86
ag108
ag88
ag65
ag66
ag90
ag100
ag490
ag202
ag194
ag92
aa(lp893
g86
ag108
ag65
ag66
ag199
ag100
ag144
ag734
ag490
aa(lp894
g86
ag178
ag65
ag115
ag116
aa(lp895
g86
ag88
ag65
ag196
ag115
ag90
ag100
ag116
ag144
ag162
ag101
aa(lp896
g86
ag88
ag65
ag196
ag90
ag100
ag116
ag103
ag144
ag150
ag162
ag101
aa(lp897
g86
ag88
ag65
ag115
ag90
ag100
ag116
ag144
ag162
ag118
ag101
aa(lp898
g86
ag88
ag65
ag115
ag90
ag100
ag116
ag144
ag118
ag101
ag194
aa(lp899
g86
ag88
ag65
ag90
ag100
ag116
ag144
ag828
ag150
ag118
ag490
ag101
aa(lp900
g86
ag88
ag65
ag90
ag100
ag116
ag144
ag150
ag162
ag118
ag101
aa(lp901
g86
ag88
ag65
ag90
ag100
ag116
ag144
ag150
ag118
ag91
ag490
ag101
ag194
aa(lp902
g86
ag65
ag100
ag144
ag734
ag118
ag490
aa(lp903
g86
aV4726
p904
aa(lp905
g690
ag172
ag114
ag115
ag117
ag162
ag119
aa(lp906
g690
ag172
ag114
ag115
ag117
ag119
ag21
ag121
aa(lp907
g690
ag172
ag115
aV5219
p908
aa(lp909
g690
ag115
ag117
ag213
ag162
ag119
aa(lp910
V2447
p911
aV4175
p912
aa(lp913
V2452
p914
aV4783
p915
aa(lp916
V2568
p917
aV70
p918
aa(lp919
V2572
p920
ag443
aa(lp921
g920
ag734
aa(lp922
g920
aV5630
p923
aa(lp924
g920
ag20
aa(lp925
V2608
p926
aV5369
p927
aa(lp928
V2619
p929
ag443
aa(lp930
g172
aV2772
p931
aa(lp932
g172
ag115
aV5118
p933
ag908
aa(lp934
g172
ag115
ag933
ag131
aa(lp935
g172
ag326
ag121
aa(lp936
V2675
p937
aV2845
p938
aa(lp939
V278
p940
aV305
p941
aa(lp942
g940
aV3844
p943
aa(lp944
g648
ag729
ag511
aa(lp945
g178
ag64
ag65
ag115
ag116
aa(lp946
g178
ag65
ag115
ag116
ag117
aa(lp947
g178
ag734
ag68
aa(lp948
g418
ag369
ag923
aa(lp949
V2848
p950
ag19
ag3
aa(lp951
g950
ag478
aa(lp952
g9
aV5165
p953
aa(lp954
g221
ag88
ag65
ag196
ag115
ag90
ag144
ag117
ag392
ag213
ag249
ag192
ag101
ag194
ag153
aa(lp955
g221
ag65
ag66
ag90
ag144
ag117
ag249
ag192
ag119
ag101
ag194
ag153
ag318
aa(lp956
g221
ag65
ag115
ag90
ag144
ag117
ag392
ag213
ag249
ag192
ag119
ag101
ag194
ag153
aa(lp957
g221
ag65
ag90
ag144
ag117
ag392
ag213
ag249
ag192
ag119
ag101
ag194
ag153
ag318
aa(lp958
g221
ag115
ag117
ag213
ag249
ag761
ag192
ag101
ag153
aa(lp959
g221
ag117
ag213
ag249
ag761
ag192
ag101
ag153
ag318
aa(lp960
g76
ag72
ag73
ag918
aa(lp961
g139
ag114
ag116
ag118
ag318
aa(lp962
g139
ag116
ag150
ag118
ag91
ag490
ag318
aa(lp963
g139
ag91
ag927
ag490
aa(lp964
g64
ag65
ag115
ag90
ag100
ag116
ag144
ag162
aa(lp965
g382
ag463
ag103
ag144
ag3
ag101
ag318
aa(lp966
g382
ag463
ag103
ag144
ag91
ag490
ag101
ag318
aa(lp967
g382
ag25
ag3
ag27
aa(lp968
g382
ag478
ag144
ag117
ag101
ag153
ag27
aa(lp969
g382
ag144
ag117
ag392
ag101
ag153
ag318
ag27
aa(lp970
g382
ag923
aa(lp971
g788
aV842
p972
aa(lp973
g18
ag65
ag196
ag115
ag478
ag90
ag144
ag117
ag213
ag162
ag101
aa(lp974
g18
ag65
ag115
ag90
ag144
ag117
ag213
ag162
ag119
ag101
aa(lp975
g18
ag115
ag162
ag131
aa(lp976
g505
ag88
ag196
ag103
ag94
ag91
ag92
aa(lp977
g505
ag196
aV5650
p978
aa(lp979
g88
aV3217
p980
ag91
ag193
aa(lp981
g88
ag65
ag196
ag115
ag478
ag90
ag100
ag116
ag144
ag117
ag162
ag101
aa(lp982
g88
ag65
ag196
ag115
ag478
ag90
ag100
ag116
ag144
ag117
ag101
ag194
ag153
aa(lp983
g88
ag65
ag196
ag115
ag478
ag90
ag144
ag117
ag213
ag162
ag101
aa(lp984
g88
ag65
ag196
ag115
ag478
ag90
ag144
ag117
ag213
ag101
ag194
ag153
aa(lp985
g88
ag65
ag196
ag90
ag116
ag103
ag144
ag150
ag162
ag101
ag318
aa(lp986
g88
ag65
ag196
ag90
ag116
ag144
ag117
ag162
ag101
ag318
aa(lp987
g88
ag65
ag196
ag90
ag103
ag144
ag213
ag150
ag162
ag101
ag318
aa(lp988
g88
ag65
ag196
ag90
ag144
ag117
ag213
ag162
ag101
ag318
aa(lp989
g88
ag65
ag90
ag100
ag116
ag144
ag117
ag828
ag118
ag101
aa(lp990
g88
ag65
ag90
ag100
ag116
ag144
ag117
ag118
ag91
ag101
ag194
ag153
aa(lp991
g88
ag65
ag90
ag100
ag116
ag144
ag150
ag118
ag91
ag490
ag101
ag194
ag153
aa(lp992
g88
ag65
ag90
ag116
ag144
ag117
ag828
ag118
ag101
ag318
aa(lp993
g88
ag65
ag90
ag116
ag144
ag117
ag162
ag118
ag101
ag318
aa(lp994
g88
ag65
ag90
ag116
ag144
ag117
ag118
ag91
ag101
ag194
ag153
ag318
aa(lp995
g88
ag65
ag90
ag116
ag144
ag828
ag150
ag118
ag490
ag101
ag318
aa(lp996
g88
ag65
ag90
ag116
ag144
ag150
ag162
ag118
ag101
ag318
aa(lp997
g731
ag47
aa(lp998
g731
aV792
p999
aa(lp1000
g980
ag876
ag91
ag193
aa(lp1001
V3237
p1002
aV3310
p1003
aa(lp1004
g463
ag116
ag103
ag144
ag150
ag91
ag490
ag101
ag318
aa(lp1005
g463
ag116
ag144
ag150
ag118
ag91
ag490
ag101
ag318
aa(lp1006
g463
ag103
ag144
ag3
ag150
ag101
ag318
aa(lp1007
g65
ag66
ag199
ag100
ag200
ag144
ag734
ag490
aa(lp1008
g65
ag66
ag90
ag116
ag144
ag117
ag249
ag192
ag119
ag101
ag194
ag153
ag318
aa(lp1009
g65
ag115
ag116
ag127
ag144
ag117
ag162
ag118
ag101
aa(lp1010
g65
ag115
ag116
ag127
ag144
ag117
ag118
ag101
ag194
aa(lp1011
g65
ag115
ag127
ag144
ag117
ag392
ag101
ag194
aa(lp1012
g65
ag124
ag90
ag116
ag144
ag117
ag162
ag118
ag101
ag318
aa(lp1013
g65
ag124
ag90
ag116
ag144
ag117
ag118
ag101
ag153
ag318
aa(lp1014
g65
ag124
ag90
ag116
ag144
ag150
ag162
ag118
ag101
ag318
aa(lp1015
g65
ag124
ag90
ag116
ag144
ag150
ag118
ag490
ag101
ag153
ag318
aa(lp1016
g65
ag124
ag116
ag127
ag144
ag117
ag162
ag118
ag101
ag318
aa(lp1017
g65
ag124
ag116
ag127
ag144
ag118
ag490
ag101
ag318
aa(lp1018
g65
ag90
ag116
ag144
ag117
ag162
ag118
ag119
ag101
ag318
aa(lp1019
g65
ag90
ag116
ag144
ag117
ag118
ag119
ag101
ag194
ag153
ag318
aa(lp1020
g65
ag90
ag144
ag117
ag213
ag162
ag119
ag101
ag318
aa(lp1021
g65
ag116
ag127
ag144
ag117
ag118
ag91
ag101
ag194
ag318
aa(lp1022
g65
ag127
ag144
ag117
ag392
ag91
ag101
ag194
ag318
aa(lp1023
g65
aV4600
p1024
aa(lp1025
g789
ag72
aV3899
p1026
ag790
aa(lp1027
g789
ag73
aV5508
p1028
aa(lp1029
g114
ag115
ag116
ag127
ag144
ag117
ag162
ag118
ag101
aa(lp1030
g114
ag116
ag127
ag144
ag117
ag162
ag118
ag101
ag318
aa(lp1031
g114
ag116
ag144
ag117
ag162
ag118
ag119
ag101
ag318
aa(lp1032
g114
ag116
ag144
ag117
ag118
ag119
ag101
ag153
ag318
aa(lp1033
g114
ag117
ag761
ag101
ag153
ag318
aa(lp1034
V3360
p1035
aV834
p1036
aa(lp1037
g115
ag127
ag144
ag117
ag392
ag101
ag27
aa(lp1038
g115
ag144
ag117
ag392
ag119
ag101
ag153
ag27
aa(lp1039
g124
ag127
ag144
ag117
ag118
ag101
ag318
ag27
aa(lp1040
g124
ag144
ag3
ag150
ag101
ag153
ag318
aa(lp1041
g124
ag144
ag3
ag101
ag153
ag318
ag27
aa(lp1042
g124
ag144
ag117
ag118
ag101
ag153
ag318
ag27
aa(lp1043
g783
ag384
aa(lp1044
g81
aV432
p1045
aa(lp1046
g81
aV4619
p1047
aa(lp1048
g81
aV805
p1049
aa(lp1050
g100
ag144
ag734
ag68
aa(lp1051
g116
ag117
ag118
aV654
p1052
aa(lp1053
g127
ag144
ag117
ag392
ag101
ag318
ag27
aa(lp1054
g127
aV5437
p1055
aa(lp1056
g144
ag117
ag392
ag119
ag101
ag153
ag318
ag27
aa(lp1057
g144
ag117
ag118
ag119
ag101
ag153
ag318
ag27
aa(lp1058
g443
aV5128
p1059
aa(lp1060
g443
ag1055
aa(lp1061
g443
aV5624
p1062
aa(lp1063
g47
ag499
ag21
aa(lp1064
g72
ag1026
ag790
ag918
aa(lp1065
g72
ag790
ag73
ag918
aa(lp1066
g72
ag790
aV5378
p1067
aa(lp1068
V3854
p1069
aV5975
p1070
aa(lp1071
g1026
ag918
ag972
aa(lp1072
V3901
p1073
ag73
aa(lp1074
V4070
p1075
ag21
aa(lp1076
V4220
p1077
ag490
ag92
aa(lp1078
g693
ag131
ag121
aa(lp1079
V4254
p1080
aV766
p1081
aa(lp1082
V4453
p1083
ag53
aa(lp1084
g793
ag78
aa(lp1085
g369
aV5434
p1086
aa(lp1087
g1055
ag499
aa(lp1088
g1055
aV846
p1089
aa(lp1090
V547
p1091
ag20
ag23
aa(lp1092
g153
ag1089
aa(lp1093
V5823
p1094
ag23
aa(lp1095
g394
ag59
aa.