(lp0
V3814
p1
aV3541
p2
aV1973
p3
aV2642
p4
aV2874
p5
aV2550
p6
aV3268
p7
aV2611
p8
aV1453
p9
aV2951
p10
aV2259
p11
aV3791
p12
aV117
p13
aV669
p14
aV2312
p15
aV529
p16
aV2878
p17
aV3698
p18
aV223
p19
aV3038
p20
aV746
p21
aV3498
p22
aV1012
p23
aV1115
p24
aV3372
p25
aV1350
p26
aV1749
p27
aV1130
p28
aV2127
p29
aV1940
p30
aV571
p31
aV2149
p32
aV860
p33
aV1300
p34
aV968
p35
aV1227
p36
aV3937
p37
aV1079
p38
aV1874
p39
aV461
p40
aV1563
p41
aV951
p42
aV1206
p43
aV3716
p44
aV1425
p45
aV835
p46
aV1454
p47
aV1900
p48
aV2167
p49
aV1753
p50
aV945
p51
aV3665
p52
aV825
p53
aV778
p54
aV2260
p55
aV3354
p56
aV134
p57
aV2842
p58
aV1631
p59
aV3724
p60
aV3047
p61
aV2100
p62
aV1323
p63
aV3789
p64
aV3506
p65
aV2818
p66
aV1428
p67
aV3350
p68
aV2610
p69
aV2821
p70
aV2212
p71
aV2136
p72
aV1414
p73
aV3848
p74
aV3734
p75
aV1197
p76
aV3625
p77
aV2045
p78
aV1952
p79
aV2929
p80
aV3082
p81
aV33
p82
aV2787
p83
aV1081
p84
aV735
p85
aV1980
p86
aV2714
p87
aV3305
p88
aV42
p89
aV767
p90
aV2770
p91
aV1394
p92
aV347
p93
aV1031
p94
aV45
p95
aV1622
p96
aV1211
p97
aV986
p98
aV2383
p99
aV553
p100
a.