(lp0
V1403
p1
aV5311
p2
aV4722
p3
aV5201
p4
aV5566
p5
aV3121
p6
aV5603
p7
aV266
p8
aV3038
p9
aV562
p10
aV1597
p11
aV4079
p12
aV4879
p13
aV5723
p14
aV416
p15
aV5884
p16
aV3727
p17
aV3262
p18
aV1229
p19
aV417
p20
aV5641
p21
aV5083
p22
aV2269
p23
aV2644
p24
aV4020
p25
aV2537
p26
aV1692
p27
aV810
p28
aV2962
p29
aV2804
p30
aV3142
p31
aV4553
p32
aV5291
p33
aV1961
p34
aV5122
p35
aV3812
p36
aV4246
p37
aV5914
p38
aV4043
p39
aV986
p40
aV2455
p41
aV1345
p42
aV4468
p43
aV2450
p44
aV5507
p45
aV3979
p46
aV976
p47
aV2236
p48
aV3895
p49
aV2730
p50
aV5120
p51
aV1236
p52
aV5570
p53
aV256
p54
aV5154
p55
aV4063
p56
aV5219
p57
aV3460
p58
aV5497
p59
aV1630
p60
aV735
p61
aV385
p62
aV694
p63
aV4755
p64
aV5790
p65
aV5220
p66
aV4740
p67
aV3871
p68
aV2502
p69
aV277
p70
aV5764
p71
aV597
p72
aV4186
p73
aV5404
p74
aV1497
p75
aV3168
p76
aV825
p77
aV5262
p78
aV2016
p79
aV4970
p80
aV56
p81
aV6020
p82
aV4865
p83
aV3207
p84
aV5704
p85
aV3733
p86
aV5562
p87
aV5324
p88
aV1018
p89
aV3607
p90
aV1354
p91
aV1324
p92
aV3635
p93
aV2567
p94
aV2027
p95
aV5977
p96
aV1858
p97
aV5942
p98
aV1644
p99
aV5816
p100
aV5279
p101
aV635
p102
aV3015
p103
aV881
p104
aV2463
p105
aV544
p106
aV1727
p107
aV4305
p108
aV5181
p109
aV3608
p110
aV5632
p111
aV306
p112
aV160
p113
aV5543
p114
aV801
p115
aV1396
p116
aV2948
p117
aV166
p118
aV2748
p119
aV2131
p120
aV1219
p121
aV4713
p122
aV4053
p123
aV4163
p124
aV6037
p125
aV2711
p126
aV3016
p127
aV3030
p128
aV4265
p129
aV258
p130
aV1789
p131
aV3430
p132
aV5019
p133
aV4406
p134
aV437
p135
aV2547
p136
aV3127
p137
aV4671
p138
aV1021
p139
aV4090
p140
aV2217
p141
aV44
p142
aV3204
p143
aV118
p144
aV5454
p145
aV4140
p146
aV3582
p147
aV250
p148
aV734
p149
aV378
p150
aV2441
p151
aV4508
p152
aV259
p153
aV4049
p154
aV809
p155
aV5798
p156
aV4947
p157
aV5477
p158
aV5687
p159
aV3214
p160
aV4129
p161
aV2053
p162
aV1264
p163
aV850
p164
aV5165
p165
aV2091
p166
aV904
p167
aV4205
p168
aV99
p169
aV5109
p170
aV3928
p171
aV130
p172
aV2877
p173
aV5938
p174
aV4682
p175
aV2720
p176
aV3226
p177
aV4247
p178
aV4176
p179
aV2407
p180
aV1532
p181
aV4643
p182
aV1015
p183
aV5364
p184
aV2966
p185
aV1152
p186
aV3544
p187
aV903
p188
aV922
p189
aV3171
p190
aV5756
p191
aV1482
p192
aV1368
p193
aV6038
p194
aV5297
p195
aV110
p196
aV2843
p197
aV2783
p198
aV4195
p199
aV2876
p200
aV4842
p201
aV4199
p202
aV1476
p203
aV3759
p204
aV2508
p205
aV5358
p206
aV4059
p207
aV80
p208
aV1126
p209
aV1779
p210
aV2923
p211
aV6039
p212
aV5533
p213
aV3277
p214
aV1276
p215
aV1041
p216
aV83
p217
aV111
p218
aV2837
p219
aV5838
p220
aV1784
p221
aV655
p222
aV3627
p223
aV4719
p224
aV4157
p225
aV1316
p226
aV560
p227
aV4408
p228
aV3400
p229
aV2673
p230
aV3568
p231
aV2435
p232
aV405
p233
aV3579
p234
aV4440
p235
aV2729
p236
aV117
p237
aV603
p238
aV3417
p239
aV537
p240
aV5114
p241
aV4804
p242
aV2983
p243
aV947
p244
aV3053
p245
aV3818
p246
aV4985
p247
aV3559
p248
aV1515
p249
aV3816
p250
aV3001
p251
aV3126
p252
aV401
p253
aV1964
p254
aV5160
p255
aV660
p256
aV5370
p257
aV85
p258
aV1838
p259
aV1196
p260
aV1998
p261
aV2476
p262
aV3206
p263
aV1610
p264
aV1593
p265
aV591
p266
aV5895
p267
aV473
p268
aV3141
p269
aV4787
p270
aV1629
p271
aV2828
p272
aV3414
p273
aV1868
p274
aV16
p275
aV2248
p276
aV3286
p277
aV2332
p278
aV2796
p279
aV2068
p280
aV9
p281
aV3343
p282
aV34
p283
aV1792
p284
aV3274
p285
aV2499
p286
aV2895
p287
aV5378
p288
aV3709
p289
aV5257
p290
aV2446
p291
aV4412
p292
aV3092
p293
aV1988
p294
aV3138
p295
aV443
p296
aV1680
p297
aV2675
p298
aV3775
p299
aV102
p300
aV1045
p301
aV155
p302
aV4506
p303
aV4350
p304
aV5701
p305
aV3251
p306
aV2624
p307
aV4942
p308
aV5128
p309
aV1628
p310
aV2704
p311
aV3103
p312
aV4670
p313
aV888
p314
aV2930
p315
aV5210
p316
aV243
p317
aV2532
p318
aV1551
p319
aV2316
p320
aV1423
p321
aV1884
p322
aV3997
p323
aV4982
p324
aV2399
p325
aV687
p326
aV1733
p327
aV807
p328
aV793
p329
aV4718
p330
aV1220
p331
aV4988
p332
aV2943
p333
aV3781
p334
aV1826
p335
aV3822
p336
aV316
p337
aV234
p338
aV2376
p339
aV2134
p340
aV5729
p341
aV2575
p342
aV5408
p343
aV3840
p344
aV4913
p345
aV1916
p346
aV5639
p347
aV322
p348
aV2597
p349
aV5591
p350
aV575
p351
aV272
p352
aV2075
p353
aV1929
p354
aV4922
p355
aV2551
p356
aV426
p357
aV3308
p358
aV2371
p359
aV2290
p360
aV1660
p361
aV936
p362
aV2684
p363
aV1926
p364
aV5979
p365
aV1033
p366
aV2337
p367
aV2447
p368
aV4949
p369
aV4012
p370
aV3889
p371
aV499
p372
aV4803
p373
aV3054
p374
aV1064
p375
aV1416
p376
aV4556
p377
aV5455
p378
aV230
p379
aV588
p380
aV5141
p381
aV4003
p382
aV3714
p383
aV2444
p384
aV4092
p385
aV510
p386
aV5200
p387
aV107
p388
aV1885
p389
aV4528
p390
aV2906
p391
aV2586
p392
aV3390
p393
aV5611
p394
aV5133
p395
aV2207
p396
aV4343
p397
aV2659
p398
aV1757
p399
aV4831
p400
aV4279
p401
aV5806
p402
aV1147
p403
aV3701
p404
aV3196
p405
aV1934
p406
aV833
p407
aV2757
p408
aV1060
p409
aV5466
p410
aV1725
p411
aV3941
p412
aV5492
p413
aV1946
p414
aV5743
p415
aV4102
p416
aV5840
p417
aV2074
p418
aV3187
p419
aV2528
p420
aV2760
p421
aV1940
p422
aV453
p423
aV227
p424
aV5138
p425
aV5034
p426
aV3659
p427
aV1140
p428
aV1253
p429
aV2379
p430
aV3721
p431
aV2105
p432
aV4891
p433
aV2473
p434
aV5376
p435
aV782
p436
aV152
p437
aV1558
p438
aV1907
p439
aV615
p440
aV5744
p441
aV3052
p442
aV2961
p443
aV1876
p444
aV291
p445
aV531
p446
aV5644
p447
aV2946
p448
aV1361
p449
aV2263
p450
aV3890
p451
aV4165
p452
aV1053
p453
aV893
p454
aV5270
p455
aV4908
p456
aV5190
p457
aV1305
p458
aV3700
p459
aV5415
p460
aV5716
p461
aV4284
p462
aV5550
p463
aV4122
p464
aV4026
p465
aV2429
p466
aV5863
p467
aV3921
p468
aV4319
p469
aV4758
p470
aV1251
p471
aV2538
p472
aV3901
p473
aV5809
p474
aV2101
p475
aV4557
p476
aV2234
p477
aV4127
p478
aV5823
p479
aV519
p480
aV2653
p481
aV1447
p482
aV1443
p483
aV2252
p484
aV3993
p485
aV3416
p486
aV41
p487
aV1588
p488
aV832
p489
aV5734
p490
aV1105
p491
aV2831
p492
aV1182
p493
aV5070
p494
aV1708
p495
aV187
p496
aV1626
p497
aV4584
p498
aV1412
p499
aV210
p500
aV2487
p501
aV5178
p502
aV5356
p503
aV1712
p504
aV552
p505
aV5993
p506
aV2270
p507
aV217
p508
aV4321
p509
aV1397
p510
aV3090
p511
aV4209
p512
aV5629
p513
aV2718
p514
aV1380
p515
aV5766
p516
aV1554
p517
aV28
p518
aV3975
p519
aV4874
p520
aV404
p521
aV596
p522
aV2891
p523
aV1859
p524
aV523
p525
aV3403
p526
aV1330
p527
aV5256
p528
aV3331
p529
aV4036
p530
aV5214
p531
aV952
p532
aV4407
p533
aV5184
p534
aV22
p535
aV2289
p536
aV3746
p537
aV3995
p538
aV3541
p539
aV3341
p540
aV43
p541
aV4032
p542
aV3944
p543
aV5878
p544
aV4562
p545
aV2368
p546
aV2357
p547
aV5793
p548
aV188
p549
aV5117
p550
aV5439
p551
aV1336
p552
aV4130
p553
aV5850
p554
aV4330
p555
aV5271
p556
aV3145
p557
aV4674
p558
aV3064
p559
aV3651
p560
aV800
p561
aV1734
p562
aV829
p563
aV226
p564
aV4775
p565
aV2852
p566
aV1467
p567
aV5382
p568
aV5699
p569
aV5170
p570
aV4675
p571
aV5054
p572
aV3801
p573
aV5149
p574
aV1706
p575
aV1563
p576
aV3940
p577
aV4443
p578
aV2001
p579
aV3683
p580
aV1750
p581
aV1486
p582
aV3096
p583
aV2364
p584
aV4529
p585
aV5151
p586
aV2910
p587
aV3027
p588
aV3677
p589
aV4593
p590
aV920
p591
aV5269
p592
aV835
p593
aV4291
p594
aV3123
p595
aV3947
p596
aV3264
p597
aV2611
p598
aV799
p599
aV4702
p600
a.